
LCD CODE.elf:     file format elf32-avr

Sections:
Idx Name          Size      VMA       LMA       File off  Algn
  0 .text         0000173a  00000000  00000000  00000094  2**1
                  CONTENTS, ALLOC, LOAD, READONLY, CODE
  1 .data         0000002a  00800060  0000173a  000017ce  2**0
                  CONTENTS, ALLOC, LOAD, DATA
  2 .bss          00000016  0080008a  0080008a  000017f8  2**0
                  ALLOC
  3 .comment      00000030  00000000  00000000  000017f8  2**0
                  CONTENTS, READONLY
  4 .note.gnu.avr.deviceinfo 0000003c  00000000  00000000  00001828  2**2
                  CONTENTS, READONLY
  5 .debug_aranges 00000150  00000000  00000000  00001864  2**0
                  CONTENTS, READONLY, DEBUGGING
  6 .debug_info   0000446b  00000000  00000000  000019b4  2**0
                  CONTENTS, READONLY, DEBUGGING
  7 .debug_abbrev 000008ca  00000000  00000000  00005e1f  2**0
                  CONTENTS, READONLY, DEBUGGING
  8 .debug_line   00001544  00000000  00000000  000066e9  2**0
                  CONTENTS, READONLY, DEBUGGING
  9 .debug_frame  00000748  00000000  00000000  00007c30  2**2
                  CONTENTS, READONLY, DEBUGGING
 10 .debug_str    00000e27  00000000  00000000  00008378  2**0
                  CONTENTS, READONLY, DEBUGGING
 11 .debug_loc    00003d3b  00000000  00000000  0000919f  2**0
                  CONTENTS, READONLY, DEBUGGING
 12 .debug_ranges 00000158  00000000  00000000  0000ceda  2**0
                  CONTENTS, READONLY, DEBUGGING

Disassembly of section .text:

00000000 <__vectors>:
       0:	0c 94 7b 00 	jmp	0xf6	; 0xf6 <__ctors_end>
       4:	0c 94 a3 00 	jmp	0x146	; 0x146 <__bad_interrupt>
       8:	0c 94 a3 00 	jmp	0x146	; 0x146 <__bad_interrupt>
       c:	0c 94 a3 00 	jmp	0x146	; 0x146 <__bad_interrupt>
      10:	0c 94 a3 00 	jmp	0x146	; 0x146 <__bad_interrupt>
      14:	0c 94 a3 00 	jmp	0x146	; 0x146 <__bad_interrupt>
      18:	0c 94 a3 00 	jmp	0x146	; 0x146 <__bad_interrupt>
      1c:	0c 94 a3 00 	jmp	0x146	; 0x146 <__bad_interrupt>
      20:	0c 94 a3 00 	jmp	0x146	; 0x146 <__bad_interrupt>
      24:	0c 94 a3 00 	jmp	0x146	; 0x146 <__bad_interrupt>
      28:	0c 94 a3 00 	jmp	0x146	; 0x146 <__bad_interrupt>
      2c:	0c 94 a3 00 	jmp	0x146	; 0x146 <__bad_interrupt>
      30:	0c 94 a3 00 	jmp	0x146	; 0x146 <__bad_interrupt>
      34:	0c 94 a3 00 	jmp	0x146	; 0x146 <__bad_interrupt>
      38:	0c 94 a3 00 	jmp	0x146	; 0x146 <__bad_interrupt>
      3c:	0c 94 a3 00 	jmp	0x146	; 0x146 <__bad_interrupt>
      40:	0c 94 a3 00 	jmp	0x146	; 0x146 <__bad_interrupt>
      44:	0c 94 a3 00 	jmp	0x146	; 0x146 <__bad_interrupt>
      48:	0c 94 a3 00 	jmp	0x146	; 0x146 <__bad_interrupt>
      4c:	0c 94 a3 00 	jmp	0x146	; 0x146 <__bad_interrupt>
      50:	0c 94 a3 00 	jmp	0x146	; 0x146 <__bad_interrupt>

00000054 <__trampolines_end>:
      54:	20 4c       	sbci	r18, 0xC0	; 192
      56:	6f 61       	ori	r22, 0x1F	; 31
      58:	64 69       	ori	r22, 0x94	; 148
      5a:	6e 67       	ori	r22, 0x7E	; 126
      5c:	20 2e       	mov	r2, r16
      5e:	2e 2e       	mov	r2, r30
      60:	20 00       	.word	0x0020	; ????
	...

00000063 <_ZL18_AtmelStudio_com__>:
      63:	41 74 6d 65 6c 53 74 75 64 69 6f 2e 63 6f 6d 00     AtmelStudio.com.
	...

00000074 <_ZL14LCD_Big_Number>:
      74:	1f 1f 1f 00 00 00 00 00 00 00 00 00 00 1f 1f 1f     ................
      84:	1f 1f 00 00 00 00 1f 1f 00 00 01 03 03 01 00 00     ................
      94:	00 00 10 18 18 10 00 00 1f 00 1f 00 10 00 1f 00     ................
      a4:	10 00 1f 00 1f 00 1f 00 1f 00 10 00 1f 00 1f 00     ................

000000b4 <_ZL13LcdCustomChar>:
      b4:	00 1f 00 00 00 00 1f 00 00 1f 10 10 10 10 1f 00     ................
      c4:	00 1f 18 18 18 18 1f 00 00 1f 1c 1c 1c 1c 1f 00     ................
      d4:	00 1f 1e 1e 1e 1e 1f 00 00 1f 1f 1f 1f 1f 1f 00     ................
      e4:	03 07 0f 1f 0f 07 03 00 18 1c fe 7f fe 1c 18 00     ................

000000f4 <__ctors_start>:
      f4:	37 0b       	sbc	r19, r23

000000f6 <__ctors_end>:
      f6:	11 24       	eor	r1, r1
      f8:	1f be       	out	0x3f, r1	; 63
      fa:	cf e5       	ldi	r28, 0x5F	; 95
      fc:	d8 e0       	ldi	r29, 0x08	; 8
      fe:	de bf       	out	0x3e, r29	; 62
     100:	cd bf       	out	0x3d, r28	; 61

00000102 <__do_copy_data>:
     102:	10 e0       	ldi	r17, 0x00	; 0
     104:	a0 e6       	ldi	r26, 0x60	; 96
     106:	b0 e0       	ldi	r27, 0x00	; 0
     108:	ea e3       	ldi	r30, 0x3A	; 58
     10a:	f7 e1       	ldi	r31, 0x17	; 23
     10c:	02 c0       	rjmp	.+4      	; 0x112 <__do_copy_data+0x10>
     10e:	05 90       	lpm	r0, Z+
     110:	0d 92       	st	X+, r0
     112:	aa 38       	cpi	r26, 0x8A	; 138
     114:	b1 07       	cpc	r27, r17
     116:	d9 f7       	brne	.-10     	; 0x10e <__do_copy_data+0xc>

00000118 <__do_clear_bss>:
     118:	20 e0       	ldi	r18, 0x00	; 0
     11a:	aa e8       	ldi	r26, 0x8A	; 138
     11c:	b0 e0       	ldi	r27, 0x00	; 0
     11e:	01 c0       	rjmp	.+2      	; 0x122 <.do_clear_bss_start>

00000120 <.do_clear_bss_loop>:
     120:	1d 92       	st	X+, r1

00000122 <.do_clear_bss_start>:
     122:	a0 3a       	cpi	r26, 0xA0	; 160
     124:	b2 07       	cpc	r27, r18
     126:	e1 f7       	brne	.-8      	; 0x120 <.do_clear_bss_loop>

00000128 <__do_global_ctors>:
     128:	10 e0       	ldi	r17, 0x00	; 0
     12a:	cb e7       	ldi	r28, 0x7B	; 123
     12c:	d0 e0       	ldi	r29, 0x00	; 0
     12e:	04 c0       	rjmp	.+8      	; 0x138 <__do_global_ctors+0x10>
     130:	21 97       	sbiw	r28, 0x01	; 1
     132:	fe 01       	movw	r30, r28
     134:	0e 94 72 0b 	call	0x16e4	; 0x16e4 <__tablejump2__>
     138:	ca 37       	cpi	r28, 0x7A	; 122
     13a:	d1 07       	cpc	r29, r17
     13c:	c9 f7       	brne	.-14     	; 0x130 <__do_global_ctors+0x8>
     13e:	0e 94 b8 0a 	call	0x1570	; 0x1570 <main>
     142:	0c 94 9b 0b 	jmp	0x1736	; 0x1736 <_exit>

00000146 <__bad_interrupt>:
     146:	0c 94 00 00 	jmp	0	; 0x0 <__vectors>

0000014a <_ZN13Character_LCDC1Ev>:
			SendChar(ch);
		}
	}

	va_end(argp);
}
     14a:	fc 01       	movw	r30, r24
     14c:	9b e1       	ldi	r25, 0x1B	; 27
     14e:	90 83       	st	Z, r25
     150:	8a e1       	ldi	r24, 0x1A	; 26
     152:	81 83       	std	Z+1, r24	; 0x01
     154:	12 82       	std	Z+2, r1	; 0x02
     156:	93 83       	std	Z+3, r25	; 0x03
     158:	84 83       	std	Z+4, r24	; 0x04
     15a:	21 e0       	ldi	r18, 0x01	; 1
     15c:	25 83       	std	Z+5, r18	; 0x05
     15e:	96 83       	std	Z+6, r25	; 0x06
     160:	87 83       	std	Z+7, r24	; 0x07
     162:	22 e0       	ldi	r18, 0x02	; 2
     164:	20 87       	std	Z+8, r18	; 0x08
     166:	91 87       	std	Z+9, r25	; 0x09
     168:	82 87       	std	Z+10, r24	; 0x0a
     16a:	23 e0       	ldi	r18, 0x03	; 3
     16c:	23 87       	std	Z+11, r18	; 0x0b
     16e:	94 87       	std	Z+12, r25	; 0x0c
     170:	85 87       	std	Z+13, r24	; 0x0d
     172:	24 e0       	ldi	r18, 0x04	; 4
     174:	26 87       	std	Z+14, r18	; 0x0e
     176:	97 87       	std	Z+15, r25	; 0x0f
     178:	80 8b       	std	Z+16, r24	; 0x10
     17a:	25 e0       	ldi	r18, 0x05	; 5
     17c:	21 8b       	std	Z+17, r18	; 0x11
     17e:	92 8b       	std	Z+18, r25	; 0x12
     180:	83 8b       	std	Z+19, r24	; 0x13
     182:	86 e0       	ldi	r24, 0x06	; 6
     184:	84 8b       	std	Z+20, r24	; 0x14
     186:	08 95       	ret

00000188 <_ZN13Character_LCD8SendCharEh>:
     188:	fc 01       	movw	r30, r24
     18a:	64 fd       	sbrc	r22, 4
     18c:	12 c0       	rjmp	.+36     	; 0x1b2 <_ZN13Character_LCD8SendCharEh+0x2a>
     18e:	a1 85       	ldd	r26, Z+9	; 0x09
     190:	b0 e0       	ldi	r27, 0x00	; 0
     192:	90 96       	adiw	r26, 0x20	; 32
     194:	2c 91       	ld	r18, X
     196:	90 97       	sbiw	r26, 0x20	; 32
     198:	81 e0       	ldi	r24, 0x01	; 1
     19a:	90 e0       	ldi	r25, 0x00	; 0
     19c:	03 84       	ldd	r0, Z+11	; 0x0b
     19e:	02 c0       	rjmp	.+4      	; 0x1a4 <_ZN13Character_LCD8SendCharEh+0x1c>
     1a0:	88 0f       	add	r24, r24
     1a2:	99 1f       	adc	r25, r25
     1a4:	0a 94       	dec	r0
     1a6:	e2 f7       	brpl	.-8      	; 0x1a0 <_ZN13Character_LCD8SendCharEh+0x18>
     1a8:	80 95       	com	r24
     1aa:	82 23       	and	r24, r18
     1ac:	90 96       	adiw	r26, 0x20	; 32
     1ae:	8c 93       	st	X, r24
     1b0:	10 c0       	rjmp	.+32     	; 0x1d2 <_ZN13Character_LCD8SendCharEh+0x4a>
     1b2:	a1 85       	ldd	r26, Z+9	; 0x09
     1b4:	b0 e0       	ldi	r27, 0x00	; 0
     1b6:	90 96       	adiw	r26, 0x20	; 32
     1b8:	2c 91       	ld	r18, X
     1ba:	90 97       	sbiw	r26, 0x20	; 32
     1bc:	81 e0       	ldi	r24, 0x01	; 1
     1be:	90 e0       	ldi	r25, 0x00	; 0
     1c0:	03 84       	ldd	r0, Z+11	; 0x0b
     1c2:	02 c0       	rjmp	.+4      	; 0x1c8 <_ZN13Character_LCD8SendCharEh+0x40>
     1c4:	88 0f       	add	r24, r24
     1c6:	99 1f       	adc	r25, r25
     1c8:	0a 94       	dec	r0
     1ca:	e2 f7       	brpl	.-8      	; 0x1c4 <_ZN13Character_LCD8SendCharEh+0x3c>
     1cc:	82 2b       	or	r24, r18
     1ce:	90 96       	adiw	r26, 0x20	; 32
     1d0:	8c 93       	st	X, r24
     1d2:	65 fd       	sbrc	r22, 5
     1d4:	12 c0       	rjmp	.+36     	; 0x1fa <_ZN13Character_LCD8SendCharEh+0x72>
     1d6:	a4 85       	ldd	r26, Z+12	; 0x0c
     1d8:	b0 e0       	ldi	r27, 0x00	; 0
     1da:	90 96       	adiw	r26, 0x20	; 32
     1dc:	2c 91       	ld	r18, X
     1de:	90 97       	sbiw	r26, 0x20	; 32
     1e0:	81 e0       	ldi	r24, 0x01	; 1
     1e2:	90 e0       	ldi	r25, 0x00	; 0
     1e4:	06 84       	ldd	r0, Z+14	; 0x0e
     1e6:	02 c0       	rjmp	.+4      	; 0x1ec <_ZN13Character_LCD8SendCharEh+0x64>
     1e8:	88 0f       	add	r24, r24
     1ea:	99 1f       	adc	r25, r25
     1ec:	0a 94       	dec	r0
     1ee:	e2 f7       	brpl	.-8      	; 0x1e8 <_ZN13Character_LCD8SendCharEh+0x60>
     1f0:	80 95       	com	r24
     1f2:	82 23       	and	r24, r18
     1f4:	90 96       	adiw	r26, 0x20	; 32
     1f6:	8c 93       	st	X, r24
     1f8:	10 c0       	rjmp	.+32     	; 0x21a <_ZN13Character_LCD8SendCharEh+0x92>
     1fa:	a4 85       	ldd	r26, Z+12	; 0x0c
     1fc:	b0 e0       	ldi	r27, 0x00	; 0
     1fe:	90 96       	adiw	r26, 0x20	; 32
     200:	2c 91       	ld	r18, X
     202:	90 97       	sbiw	r26, 0x20	; 32
     204:	81 e0       	ldi	r24, 0x01	; 1
     206:	90 e0       	ldi	r25, 0x00	; 0
     208:	06 84       	ldd	r0, Z+14	; 0x0e
     20a:	02 c0       	rjmp	.+4      	; 0x210 <_ZN13Character_LCD8SendCharEh+0x88>
     20c:	88 0f       	add	r24, r24
     20e:	99 1f       	adc	r25, r25
     210:	0a 94       	dec	r0
     212:	e2 f7       	brpl	.-8      	; 0x20c <_ZN13Character_LCD8SendCharEh+0x84>
     214:	82 2b       	or	r24, r18
     216:	90 96       	adiw	r26, 0x20	; 32
     218:	8c 93       	st	X, r24
     21a:	66 fd       	sbrc	r22, 6
     21c:	12 c0       	rjmp	.+36     	; 0x242 <_ZN13Character_LCD8SendCharEh+0xba>
     21e:	a7 85       	ldd	r26, Z+15	; 0x0f
     220:	b0 e0       	ldi	r27, 0x00	; 0
     222:	90 96       	adiw	r26, 0x20	; 32
     224:	2c 91       	ld	r18, X
     226:	90 97       	sbiw	r26, 0x20	; 32
     228:	81 e0       	ldi	r24, 0x01	; 1
     22a:	90 e0       	ldi	r25, 0x00	; 0
     22c:	01 88       	ldd	r0, Z+17	; 0x11
     22e:	02 c0       	rjmp	.+4      	; 0x234 <_ZN13Character_LCD8SendCharEh+0xac>
     230:	88 0f       	add	r24, r24
     232:	99 1f       	adc	r25, r25
     234:	0a 94       	dec	r0
     236:	e2 f7       	brpl	.-8      	; 0x230 <_ZN13Character_LCD8SendCharEh+0xa8>
     238:	80 95       	com	r24
     23a:	82 23       	and	r24, r18
     23c:	90 96       	adiw	r26, 0x20	; 32
     23e:	8c 93       	st	X, r24
     240:	10 c0       	rjmp	.+32     	; 0x262 <_ZN13Character_LCD8SendCharEh+0xda>
     242:	a7 85       	ldd	r26, Z+15	; 0x0f
     244:	b0 e0       	ldi	r27, 0x00	; 0
     246:	90 96       	adiw	r26, 0x20	; 32
     248:	2c 91       	ld	r18, X
     24a:	90 97       	sbiw	r26, 0x20	; 32
     24c:	81 e0       	ldi	r24, 0x01	; 1
     24e:	90 e0       	ldi	r25, 0x00	; 0
     250:	01 88       	ldd	r0, Z+17	; 0x11
     252:	02 c0       	rjmp	.+4      	; 0x258 <_ZN13Character_LCD8SendCharEh+0xd0>
     254:	88 0f       	add	r24, r24
     256:	99 1f       	adc	r25, r25
     258:	0a 94       	dec	r0
     25a:	e2 f7       	brpl	.-8      	; 0x254 <_ZN13Character_LCD8SendCharEh+0xcc>
     25c:	82 2b       	or	r24, r18
     25e:	90 96       	adiw	r26, 0x20	; 32
     260:	8c 93       	st	X, r24
     262:	66 23       	and	r22, r22
     264:	94 f0       	brlt	.+36     	; 0x28a <_ZN13Character_LCD8SendCharEh+0x102>
     266:	a2 89       	ldd	r26, Z+18	; 0x12
     268:	b0 e0       	ldi	r27, 0x00	; 0
     26a:	90 96       	adiw	r26, 0x20	; 32
     26c:	2c 91       	ld	r18, X
     26e:	90 97       	sbiw	r26, 0x20	; 32
     270:	81 e0       	ldi	r24, 0x01	; 1
     272:	90 e0       	ldi	r25, 0x00	; 0
     274:	04 88       	ldd	r0, Z+20	; 0x14
     276:	02 c0       	rjmp	.+4      	; 0x27c <_ZN13Character_LCD8SendCharEh+0xf4>
     278:	88 0f       	add	r24, r24
     27a:	99 1f       	adc	r25, r25
     27c:	0a 94       	dec	r0
     27e:	e2 f7       	brpl	.-8      	; 0x278 <_ZN13Character_LCD8SendCharEh+0xf0>
     280:	80 95       	com	r24
     282:	82 23       	and	r24, r18
     284:	90 96       	adiw	r26, 0x20	; 32
     286:	8c 93       	st	X, r24
     288:	10 c0       	rjmp	.+32     	; 0x2aa <_ZN13Character_LCD8SendCharEh+0x122>
     28a:	a2 89       	ldd	r26, Z+18	; 0x12
     28c:	b0 e0       	ldi	r27, 0x00	; 0
     28e:	90 96       	adiw	r26, 0x20	; 32
     290:	2c 91       	ld	r18, X
     292:	90 97       	sbiw	r26, 0x20	; 32
     294:	81 e0       	ldi	r24, 0x01	; 1
     296:	90 e0       	ldi	r25, 0x00	; 0
     298:	04 88       	ldd	r0, Z+20	; 0x14
     29a:	02 c0       	rjmp	.+4      	; 0x2a0 <_ZN13Character_LCD8SendCharEh+0x118>
     29c:	88 0f       	add	r24, r24
     29e:	99 1f       	adc	r25, r25
     2a0:	0a 94       	dec	r0
     2a2:	e2 f7       	brpl	.-8      	; 0x29c <_ZN13Character_LCD8SendCharEh+0x114>
     2a4:	82 2b       	or	r24, r18
     2a6:	90 96       	adiw	r26, 0x20	; 32
     2a8:	8c 93       	st	X, r24
     2aa:	a0 81       	ld	r26, Z
     2ac:	b0 e0       	ldi	r27, 0x00	; 0
     2ae:	90 96       	adiw	r26, 0x20	; 32
     2b0:	4c 91       	ld	r20, X
     2b2:	90 97       	sbiw	r26, 0x20	; 32
     2b4:	81 e0       	ldi	r24, 0x01	; 1
     2b6:	90 e0       	ldi	r25, 0x00	; 0
     2b8:	9c 01       	movw	r18, r24
     2ba:	02 80       	ldd	r0, Z+2	; 0x02
     2bc:	02 c0       	rjmp	.+4      	; 0x2c2 <_ZN13Character_LCD8SendCharEh+0x13a>
     2be:	22 0f       	add	r18, r18
     2c0:	33 1f       	adc	r19, r19
     2c2:	0a 94       	dec	r0
     2c4:	e2 f7       	brpl	.-8      	; 0x2be <_ZN13Character_LCD8SendCharEh+0x136>
     2c6:	24 2b       	or	r18, r20
     2c8:	90 96       	adiw	r26, 0x20	; 32
     2ca:	2c 93       	st	X, r18
     2cc:	a6 81       	ldd	r26, Z+6	; 0x06
     2ce:	b0 e0       	ldi	r27, 0x00	; 0
     2d0:	90 96       	adiw	r26, 0x20	; 32
     2d2:	4c 91       	ld	r20, X
     2d4:	90 97       	sbiw	r26, 0x20	; 32
     2d6:	9c 01       	movw	r18, r24
     2d8:	00 84       	ldd	r0, Z+8	; 0x08
     2da:	02 c0       	rjmp	.+4      	; 0x2e0 <_ZN13Character_LCD8SendCharEh+0x158>
     2dc:	22 0f       	add	r18, r18
     2de:	33 1f       	adc	r19, r19
     2e0:	0a 94       	dec	r0
     2e2:	e2 f7       	brpl	.-8      	; 0x2dc <_ZN13Character_LCD8SendCharEh+0x154>
     2e4:	24 2b       	or	r18, r20
     2e6:	90 96       	adiw	r26, 0x20	; 32
     2e8:	2c 93       	st	X, r18
     2ea:	af ec       	ldi	r26, 0xCF	; 207
     2ec:	b7 e0       	ldi	r27, 0x07	; 7
     2ee:	11 97       	sbiw	r26, 0x01	; 1
     2f0:	f1 f7       	brne	.-4      	; 0x2ee <_ZN13Character_LCD8SendCharEh+0x166>
     2f2:	00 c0       	rjmp	.+0      	; 0x2f4 <_ZN13Character_LCD8SendCharEh+0x16c>
     2f4:	00 00       	nop
     2f6:	a6 81       	ldd	r26, Z+6	; 0x06
     2f8:	b0 e0       	ldi	r27, 0x00	; 0
     2fa:	90 96       	adiw	r26, 0x20	; 32
     2fc:	3c 91       	ld	r19, X
     2fe:	90 97       	sbiw	r26, 0x20	; 32
     300:	ac 01       	movw	r20, r24
     302:	00 84       	ldd	r0, Z+8	; 0x08
     304:	02 c0       	rjmp	.+4      	; 0x30a <_ZN13Character_LCD8SendCharEh+0x182>
     306:	44 0f       	add	r20, r20
     308:	55 1f       	adc	r21, r21
     30a:	0a 94       	dec	r0
     30c:	e2 f7       	brpl	.-8      	; 0x306 <_ZN13Character_LCD8SendCharEh+0x17e>
     30e:	24 2f       	mov	r18, r20
     310:	20 95       	com	r18
     312:	23 23       	and	r18, r19
     314:	90 96       	adiw	r26, 0x20	; 32
     316:	2c 93       	st	X, r18
     318:	a0 81       	ld	r26, Z
     31a:	b0 e0       	ldi	r27, 0x00	; 0
     31c:	90 96       	adiw	r26, 0x20	; 32
     31e:	2c 91       	ld	r18, X
     320:	90 97       	sbiw	r26, 0x20	; 32
     322:	02 80       	ldd	r0, Z+2	; 0x02
     324:	02 c0       	rjmp	.+4      	; 0x32a <_ZN13Character_LCD8SendCharEh+0x1a2>
     326:	88 0f       	add	r24, r24
     328:	99 1f       	adc	r25, r25
     32a:	0a 94       	dec	r0
     32c:	e2 f7       	brpl	.-8      	; 0x326 <_ZN13Character_LCD8SendCharEh+0x19e>
     32e:	80 95       	com	r24
     330:	82 23       	and	r24, r18
     332:	90 96       	adiw	r26, 0x20	; 32
     334:	8c 93       	st	X, r24
     336:	8f ec       	ldi	r24, 0xCF	; 207
     338:	97 e0       	ldi	r25, 0x07	; 7
     33a:	01 97       	sbiw	r24, 0x01	; 1
     33c:	f1 f7       	brne	.-4      	; 0x33a <_ZN13Character_LCD8SendCharEh+0x1b2>
     33e:	00 c0       	rjmp	.+0      	; 0x340 <_ZN13Character_LCD8SendCharEh+0x1b8>
     340:	00 00       	nop
     342:	60 fd       	sbrc	r22, 0
     344:	12 c0       	rjmp	.+36     	; 0x36a <_ZN13Character_LCD8SendCharEh+0x1e2>
     346:	a1 85       	ldd	r26, Z+9	; 0x09
     348:	b0 e0       	ldi	r27, 0x00	; 0
     34a:	90 96       	adiw	r26, 0x20	; 32
     34c:	2c 91       	ld	r18, X
     34e:	90 97       	sbiw	r26, 0x20	; 32
     350:	81 e0       	ldi	r24, 0x01	; 1
     352:	90 e0       	ldi	r25, 0x00	; 0
     354:	03 84       	ldd	r0, Z+11	; 0x0b
     356:	02 c0       	rjmp	.+4      	; 0x35c <_ZN13Character_LCD8SendCharEh+0x1d4>
     358:	88 0f       	add	r24, r24
     35a:	99 1f       	adc	r25, r25
     35c:	0a 94       	dec	r0
     35e:	e2 f7       	brpl	.-8      	; 0x358 <_ZN13Character_LCD8SendCharEh+0x1d0>
     360:	80 95       	com	r24
     362:	82 23       	and	r24, r18
     364:	90 96       	adiw	r26, 0x20	; 32
     366:	8c 93       	st	X, r24
     368:	10 c0       	rjmp	.+32     	; 0x38a <_ZN13Character_LCD8SendCharEh+0x202>
     36a:	a1 85       	ldd	r26, Z+9	; 0x09
     36c:	b0 e0       	ldi	r27, 0x00	; 0
     36e:	90 96       	adiw	r26, 0x20	; 32
     370:	2c 91       	ld	r18, X
     372:	90 97       	sbiw	r26, 0x20	; 32
     374:	81 e0       	ldi	r24, 0x01	; 1
     376:	90 e0       	ldi	r25, 0x00	; 0
     378:	03 84       	ldd	r0, Z+11	; 0x0b
     37a:	02 c0       	rjmp	.+4      	; 0x380 <_ZN13Character_LCD8SendCharEh+0x1f8>
     37c:	88 0f       	add	r24, r24
     37e:	99 1f       	adc	r25, r25
     380:	0a 94       	dec	r0
     382:	e2 f7       	brpl	.-8      	; 0x37c <_ZN13Character_LCD8SendCharEh+0x1f4>
     384:	82 2b       	or	r24, r18
     386:	90 96       	adiw	r26, 0x20	; 32
     388:	8c 93       	st	X, r24
     38a:	61 fd       	sbrc	r22, 1
     38c:	12 c0       	rjmp	.+36     	; 0x3b2 <_ZN13Character_LCD8SendCharEh+0x22a>
     38e:	a4 85       	ldd	r26, Z+12	; 0x0c
     390:	b0 e0       	ldi	r27, 0x00	; 0
     392:	90 96       	adiw	r26, 0x20	; 32
     394:	2c 91       	ld	r18, X
     396:	90 97       	sbiw	r26, 0x20	; 32
     398:	81 e0       	ldi	r24, 0x01	; 1
     39a:	90 e0       	ldi	r25, 0x00	; 0
     39c:	06 84       	ldd	r0, Z+14	; 0x0e
     39e:	02 c0       	rjmp	.+4      	; 0x3a4 <_ZN13Character_LCD8SendCharEh+0x21c>
     3a0:	88 0f       	add	r24, r24
     3a2:	99 1f       	adc	r25, r25
     3a4:	0a 94       	dec	r0
     3a6:	e2 f7       	brpl	.-8      	; 0x3a0 <_ZN13Character_LCD8SendCharEh+0x218>
     3a8:	80 95       	com	r24
     3aa:	82 23       	and	r24, r18
     3ac:	90 96       	adiw	r26, 0x20	; 32
     3ae:	8c 93       	st	X, r24
     3b0:	10 c0       	rjmp	.+32     	; 0x3d2 <_ZN13Character_LCD8SendCharEh+0x24a>
     3b2:	a4 85       	ldd	r26, Z+12	; 0x0c
     3b4:	b0 e0       	ldi	r27, 0x00	; 0
     3b6:	90 96       	adiw	r26, 0x20	; 32
     3b8:	2c 91       	ld	r18, X
     3ba:	90 97       	sbiw	r26, 0x20	; 32
     3bc:	81 e0       	ldi	r24, 0x01	; 1
     3be:	90 e0       	ldi	r25, 0x00	; 0
     3c0:	06 84       	ldd	r0, Z+14	; 0x0e
     3c2:	02 c0       	rjmp	.+4      	; 0x3c8 <_ZN13Character_LCD8SendCharEh+0x240>
     3c4:	88 0f       	add	r24, r24
     3c6:	99 1f       	adc	r25, r25
     3c8:	0a 94       	dec	r0
     3ca:	e2 f7       	brpl	.-8      	; 0x3c4 <_ZN13Character_LCD8SendCharEh+0x23c>
     3cc:	82 2b       	or	r24, r18
     3ce:	90 96       	adiw	r26, 0x20	; 32
     3d0:	8c 93       	st	X, r24
     3d2:	62 fd       	sbrc	r22, 2
     3d4:	12 c0       	rjmp	.+36     	; 0x3fa <_ZN13Character_LCD8SendCharEh+0x272>
     3d6:	a7 85       	ldd	r26, Z+15	; 0x0f
     3d8:	b0 e0       	ldi	r27, 0x00	; 0
     3da:	90 96       	adiw	r26, 0x20	; 32
     3dc:	2c 91       	ld	r18, X
     3de:	90 97       	sbiw	r26, 0x20	; 32
     3e0:	81 e0       	ldi	r24, 0x01	; 1
     3e2:	90 e0       	ldi	r25, 0x00	; 0
     3e4:	01 88       	ldd	r0, Z+17	; 0x11
     3e6:	02 c0       	rjmp	.+4      	; 0x3ec <_ZN13Character_LCD8SendCharEh+0x264>
     3e8:	88 0f       	add	r24, r24
     3ea:	99 1f       	adc	r25, r25
     3ec:	0a 94       	dec	r0
     3ee:	e2 f7       	brpl	.-8      	; 0x3e8 <_ZN13Character_LCD8SendCharEh+0x260>
     3f0:	80 95       	com	r24
     3f2:	82 23       	and	r24, r18
     3f4:	90 96       	adiw	r26, 0x20	; 32
     3f6:	8c 93       	st	X, r24
     3f8:	10 c0       	rjmp	.+32     	; 0x41a <__LOCK_REGION_LENGTH__+0x1a>
     3fa:	a7 85       	ldd	r26, Z+15	; 0x0f
     3fc:	b0 e0       	ldi	r27, 0x00	; 0
     3fe:	90 96       	adiw	r26, 0x20	; 32
     400:	2c 91       	ld	r18, X
     402:	90 97       	sbiw	r26, 0x20	; 32
     404:	81 e0       	ldi	r24, 0x01	; 1
     406:	90 e0       	ldi	r25, 0x00	; 0
     408:	01 88       	ldd	r0, Z+17	; 0x11
     40a:	02 c0       	rjmp	.+4      	; 0x410 <__LOCK_REGION_LENGTH__+0x10>
     40c:	88 0f       	add	r24, r24
     40e:	99 1f       	adc	r25, r25
     410:	0a 94       	dec	r0
     412:	e2 f7       	brpl	.-8      	; 0x40c <__LOCK_REGION_LENGTH__+0xc>
     414:	82 2b       	or	r24, r18
     416:	90 96       	adiw	r26, 0x20	; 32
     418:	8c 93       	st	X, r24
     41a:	63 fd       	sbrc	r22, 3
     41c:	12 c0       	rjmp	.+36     	; 0x442 <__LOCK_REGION_LENGTH__+0x42>
     41e:	a2 89       	ldd	r26, Z+18	; 0x12
     420:	b0 e0       	ldi	r27, 0x00	; 0
     422:	90 96       	adiw	r26, 0x20	; 32
     424:	2c 91       	ld	r18, X
     426:	90 97       	sbiw	r26, 0x20	; 32
     428:	81 e0       	ldi	r24, 0x01	; 1
     42a:	90 e0       	ldi	r25, 0x00	; 0
     42c:	04 88       	ldd	r0, Z+20	; 0x14
     42e:	02 c0       	rjmp	.+4      	; 0x434 <__LOCK_REGION_LENGTH__+0x34>
     430:	88 0f       	add	r24, r24
     432:	99 1f       	adc	r25, r25
     434:	0a 94       	dec	r0
     436:	e2 f7       	brpl	.-8      	; 0x430 <__LOCK_REGION_LENGTH__+0x30>
     438:	80 95       	com	r24
     43a:	82 23       	and	r24, r18
     43c:	90 96       	adiw	r26, 0x20	; 32
     43e:	8c 93       	st	X, r24
     440:	10 c0       	rjmp	.+32     	; 0x462 <__LOCK_REGION_LENGTH__+0x62>
     442:	a2 89       	ldd	r26, Z+18	; 0x12
     444:	b0 e0       	ldi	r27, 0x00	; 0
     446:	90 96       	adiw	r26, 0x20	; 32
     448:	2c 91       	ld	r18, X
     44a:	90 97       	sbiw	r26, 0x20	; 32
     44c:	81 e0       	ldi	r24, 0x01	; 1
     44e:	90 e0       	ldi	r25, 0x00	; 0
     450:	04 88       	ldd	r0, Z+20	; 0x14
     452:	02 c0       	rjmp	.+4      	; 0x458 <__LOCK_REGION_LENGTH__+0x58>
     454:	88 0f       	add	r24, r24
     456:	99 1f       	adc	r25, r25
     458:	0a 94       	dec	r0
     45a:	e2 f7       	brpl	.-8      	; 0x454 <__LOCK_REGION_LENGTH__+0x54>
     45c:	82 2b       	or	r24, r18
     45e:	90 96       	adiw	r26, 0x20	; 32
     460:	8c 93       	st	X, r24
     462:	a0 81       	ld	r26, Z
     464:	b0 e0       	ldi	r27, 0x00	; 0
     466:	90 96       	adiw	r26, 0x20	; 32
     468:	4c 91       	ld	r20, X
     46a:	90 97       	sbiw	r26, 0x20	; 32
     46c:	81 e0       	ldi	r24, 0x01	; 1
     46e:	90 e0       	ldi	r25, 0x00	; 0
     470:	9c 01       	movw	r18, r24
     472:	02 80       	ldd	r0, Z+2	; 0x02
     474:	02 c0       	rjmp	.+4      	; 0x47a <__LOCK_REGION_LENGTH__+0x7a>
     476:	22 0f       	add	r18, r18
     478:	33 1f       	adc	r19, r19
     47a:	0a 94       	dec	r0
     47c:	e2 f7       	brpl	.-8      	; 0x476 <__LOCK_REGION_LENGTH__+0x76>
     47e:	24 2b       	or	r18, r20
     480:	90 96       	adiw	r26, 0x20	; 32
     482:	2c 93       	st	X, r18
     484:	a6 81       	ldd	r26, Z+6	; 0x06
     486:	b0 e0       	ldi	r27, 0x00	; 0
     488:	90 96       	adiw	r26, 0x20	; 32
     48a:	4c 91       	ld	r20, X
     48c:	90 97       	sbiw	r26, 0x20	; 32
     48e:	9c 01       	movw	r18, r24
     490:	00 84       	ldd	r0, Z+8	; 0x08
     492:	02 c0       	rjmp	.+4      	; 0x498 <__LOCK_REGION_LENGTH__+0x98>
     494:	22 0f       	add	r18, r18
     496:	33 1f       	adc	r19, r19
     498:	0a 94       	dec	r0
     49a:	e2 f7       	brpl	.-8      	; 0x494 <__LOCK_REGION_LENGTH__+0x94>
     49c:	24 2b       	or	r18, r20
     49e:	90 96       	adiw	r26, 0x20	; 32
     4a0:	2c 93       	st	X, r18
     4a2:	af ec       	ldi	r26, 0xCF	; 207
     4a4:	b7 e0       	ldi	r27, 0x07	; 7
     4a6:	11 97       	sbiw	r26, 0x01	; 1
     4a8:	f1 f7       	brne	.-4      	; 0x4a6 <__LOCK_REGION_LENGTH__+0xa6>
     4aa:	00 c0       	rjmp	.+0      	; 0x4ac <__LOCK_REGION_LENGTH__+0xac>
     4ac:	00 00       	nop
     4ae:	a6 81       	ldd	r26, Z+6	; 0x06
     4b0:	b0 e0       	ldi	r27, 0x00	; 0
     4b2:	90 96       	adiw	r26, 0x20	; 32
     4b4:	3c 91       	ld	r19, X
     4b6:	90 97       	sbiw	r26, 0x20	; 32
     4b8:	ac 01       	movw	r20, r24
     4ba:	00 84       	ldd	r0, Z+8	; 0x08
     4bc:	02 c0       	rjmp	.+4      	; 0x4c2 <__LOCK_REGION_LENGTH__+0xc2>
     4be:	44 0f       	add	r20, r20
     4c0:	55 1f       	adc	r21, r21
     4c2:	0a 94       	dec	r0
     4c4:	e2 f7       	brpl	.-8      	; 0x4be <__LOCK_REGION_LENGTH__+0xbe>
     4c6:	24 2f       	mov	r18, r20
     4c8:	20 95       	com	r18
     4ca:	23 23       	and	r18, r19
     4cc:	90 96       	adiw	r26, 0x20	; 32
     4ce:	2c 93       	st	X, r18
     4d0:	a0 81       	ld	r26, Z
     4d2:	b0 e0       	ldi	r27, 0x00	; 0
     4d4:	90 96       	adiw	r26, 0x20	; 32
     4d6:	2c 91       	ld	r18, X
     4d8:	90 97       	sbiw	r26, 0x20	; 32
     4da:	02 80       	ldd	r0, Z+2	; 0x02
     4dc:	02 c0       	rjmp	.+4      	; 0x4e2 <__LOCK_REGION_LENGTH__+0xe2>
     4de:	88 0f       	add	r24, r24
     4e0:	99 1f       	adc	r25, r25
     4e2:	0a 94       	dec	r0
     4e4:	e2 f7       	brpl	.-8      	; 0x4de <__LOCK_REGION_LENGTH__+0xde>
     4e6:	80 95       	com	r24
     4e8:	82 23       	and	r24, r18
     4ea:	90 96       	adiw	r26, 0x20	; 32
     4ec:	8c 93       	st	X, r24
     4ee:	8f ec       	ldi	r24, 0xCF	; 207
     4f0:	97 e0       	ldi	r25, 0x07	; 7
     4f2:	01 97       	sbiw	r24, 0x01	; 1
     4f4:	f1 f7       	brne	.-4      	; 0x4f2 <__LOCK_REGION_LENGTH__+0xf2>
     4f6:	00 c0       	rjmp	.+0      	; 0x4f8 <__LOCK_REGION_LENGTH__+0xf8>
     4f8:	00 00       	nop
     4fa:	08 95       	ret

000004fc <_ZN13Character_LCD12SendString_VEPhh>:
     4fc:	ef 92       	push	r14
     4fe:	ff 92       	push	r15
     500:	0f 93       	push	r16
     502:	1f 93       	push	r17
     504:	cf 93       	push	r28
     506:	df 93       	push	r29
     508:	61 15       	cp	r22, r1
     50a:	71 05       	cpc	r23, r1
     50c:	c1 f0       	breq	.+48     	; 0x53e <_ZN13Character_LCD12SendString_VEPhh+0x42>
     50e:	44 23       	and	r20, r20
     510:	81 f0       	breq	.+32     	; 0x532 <_ZN13Character_LCD12SendString_VEPhh+0x36>
     512:	7c 01       	movw	r14, r24
     514:	eb 01       	movw	r28, r22
     516:	41 50       	subi	r20, 0x01	; 1
     518:	04 2f       	mov	r16, r20
     51a:	10 e0       	ldi	r17, 0x00	; 0
     51c:	0f 5f       	subi	r16, 0xFF	; 255
     51e:	1f 4f       	sbci	r17, 0xFF	; 255
     520:	06 0f       	add	r16, r22
     522:	17 1f       	adc	r17, r23
     524:	69 91       	ld	r22, Y+
     526:	c7 01       	movw	r24, r14
     528:	0e 94 c4 00 	call	0x188	; 0x188 <_ZN13Character_LCD8SendCharEh>
     52c:	c0 17       	cp	r28, r16
     52e:	d1 07       	cpc	r29, r17
     530:	c9 f7       	brne	.-14     	; 0x524 <_ZN13Character_LCD12SendString_VEPhh+0x28>
     532:	8f ec       	ldi	r24, 0xCF	; 207
     534:	97 e0       	ldi	r25, 0x07	; 7
     536:	01 97       	sbiw	r24, 0x01	; 1
     538:	f1 f7       	brne	.-4      	; 0x536 <_ZN13Character_LCD12SendString_VEPhh+0x3a>
     53a:	00 c0       	rjmp	.+0      	; 0x53c <_ZN13Character_LCD12SendString_VEPhh+0x40>
     53c:	00 00       	nop
     53e:	df 91       	pop	r29
     540:	cf 91       	pop	r28
     542:	1f 91       	pop	r17
     544:	0f 91       	pop	r16
     546:	ff 90       	pop	r15
     548:	ef 90       	pop	r14
     54a:	08 95       	ret

0000054c <_ZN13Character_LCD11SendCommandEh>:
     54c:	fc 01       	movw	r30, r24
     54e:	64 fd       	sbrc	r22, 4
     550:	12 c0       	rjmp	.+36     	; 0x576 <_ZN13Character_LCD11SendCommandEh+0x2a>
     552:	a1 85       	ldd	r26, Z+9	; 0x09
     554:	b0 e0       	ldi	r27, 0x00	; 0
     556:	90 96       	adiw	r26, 0x20	; 32
     558:	2c 91       	ld	r18, X
     55a:	90 97       	sbiw	r26, 0x20	; 32
     55c:	81 e0       	ldi	r24, 0x01	; 1
     55e:	90 e0       	ldi	r25, 0x00	; 0
     560:	03 84       	ldd	r0, Z+11	; 0x0b
     562:	02 c0       	rjmp	.+4      	; 0x568 <_ZN13Character_LCD11SendCommandEh+0x1c>
     564:	88 0f       	add	r24, r24
     566:	99 1f       	adc	r25, r25
     568:	0a 94       	dec	r0
     56a:	e2 f7       	brpl	.-8      	; 0x564 <_ZN13Character_LCD11SendCommandEh+0x18>
     56c:	80 95       	com	r24
     56e:	82 23       	and	r24, r18
     570:	90 96       	adiw	r26, 0x20	; 32
     572:	8c 93       	st	X, r24
     574:	10 c0       	rjmp	.+32     	; 0x596 <_ZN13Character_LCD11SendCommandEh+0x4a>
     576:	a1 85       	ldd	r26, Z+9	; 0x09
     578:	b0 e0       	ldi	r27, 0x00	; 0
     57a:	90 96       	adiw	r26, 0x20	; 32
     57c:	2c 91       	ld	r18, X
     57e:	90 97       	sbiw	r26, 0x20	; 32
     580:	81 e0       	ldi	r24, 0x01	; 1
     582:	90 e0       	ldi	r25, 0x00	; 0
     584:	03 84       	ldd	r0, Z+11	; 0x0b
     586:	02 c0       	rjmp	.+4      	; 0x58c <_ZN13Character_LCD11SendCommandEh+0x40>
     588:	88 0f       	add	r24, r24
     58a:	99 1f       	adc	r25, r25
     58c:	0a 94       	dec	r0
     58e:	e2 f7       	brpl	.-8      	; 0x588 <_ZN13Character_LCD11SendCommandEh+0x3c>
     590:	82 2b       	or	r24, r18
     592:	90 96       	adiw	r26, 0x20	; 32
     594:	8c 93       	st	X, r24
     596:	65 fd       	sbrc	r22, 5
     598:	12 c0       	rjmp	.+36     	; 0x5be <_ZN13Character_LCD11SendCommandEh+0x72>
     59a:	a4 85       	ldd	r26, Z+12	; 0x0c
     59c:	b0 e0       	ldi	r27, 0x00	; 0
     59e:	90 96       	adiw	r26, 0x20	; 32
     5a0:	2c 91       	ld	r18, X
     5a2:	90 97       	sbiw	r26, 0x20	; 32
     5a4:	81 e0       	ldi	r24, 0x01	; 1
     5a6:	90 e0       	ldi	r25, 0x00	; 0
     5a8:	06 84       	ldd	r0, Z+14	; 0x0e
     5aa:	02 c0       	rjmp	.+4      	; 0x5b0 <_ZN13Character_LCD11SendCommandEh+0x64>
     5ac:	88 0f       	add	r24, r24
     5ae:	99 1f       	adc	r25, r25
     5b0:	0a 94       	dec	r0
     5b2:	e2 f7       	brpl	.-8      	; 0x5ac <_ZN13Character_LCD11SendCommandEh+0x60>
     5b4:	80 95       	com	r24
     5b6:	82 23       	and	r24, r18
     5b8:	90 96       	adiw	r26, 0x20	; 32
     5ba:	8c 93       	st	X, r24
     5bc:	10 c0       	rjmp	.+32     	; 0x5de <_ZN13Character_LCD11SendCommandEh+0x92>
     5be:	a4 85       	ldd	r26, Z+12	; 0x0c
     5c0:	b0 e0       	ldi	r27, 0x00	; 0
     5c2:	90 96       	adiw	r26, 0x20	; 32
     5c4:	2c 91       	ld	r18, X
     5c6:	90 97       	sbiw	r26, 0x20	; 32
     5c8:	81 e0       	ldi	r24, 0x01	; 1
     5ca:	90 e0       	ldi	r25, 0x00	; 0
     5cc:	06 84       	ldd	r0, Z+14	; 0x0e
     5ce:	02 c0       	rjmp	.+4      	; 0x5d4 <_ZN13Character_LCD11SendCommandEh+0x88>
     5d0:	88 0f       	add	r24, r24
     5d2:	99 1f       	adc	r25, r25
     5d4:	0a 94       	dec	r0
     5d6:	e2 f7       	brpl	.-8      	; 0x5d0 <_ZN13Character_LCD11SendCommandEh+0x84>
     5d8:	82 2b       	or	r24, r18
     5da:	90 96       	adiw	r26, 0x20	; 32
     5dc:	8c 93       	st	X, r24
     5de:	66 fd       	sbrc	r22, 6
     5e0:	12 c0       	rjmp	.+36     	; 0x606 <_ZN13Character_LCD11SendCommandEh+0xba>
     5e2:	a7 85       	ldd	r26, Z+15	; 0x0f
     5e4:	b0 e0       	ldi	r27, 0x00	; 0
     5e6:	90 96       	adiw	r26, 0x20	; 32
     5e8:	2c 91       	ld	r18, X
     5ea:	90 97       	sbiw	r26, 0x20	; 32
     5ec:	81 e0       	ldi	r24, 0x01	; 1
     5ee:	90 e0       	ldi	r25, 0x00	; 0
     5f0:	01 88       	ldd	r0, Z+17	; 0x11
     5f2:	02 c0       	rjmp	.+4      	; 0x5f8 <_ZN13Character_LCD11SendCommandEh+0xac>
     5f4:	88 0f       	add	r24, r24
     5f6:	99 1f       	adc	r25, r25
     5f8:	0a 94       	dec	r0
     5fa:	e2 f7       	brpl	.-8      	; 0x5f4 <_ZN13Character_LCD11SendCommandEh+0xa8>
     5fc:	80 95       	com	r24
     5fe:	82 23       	and	r24, r18
     600:	90 96       	adiw	r26, 0x20	; 32
     602:	8c 93       	st	X, r24
     604:	10 c0       	rjmp	.+32     	; 0x626 <_ZN13Character_LCD11SendCommandEh+0xda>
     606:	a7 85       	ldd	r26, Z+15	; 0x0f
     608:	b0 e0       	ldi	r27, 0x00	; 0
     60a:	90 96       	adiw	r26, 0x20	; 32
     60c:	2c 91       	ld	r18, X
     60e:	90 97       	sbiw	r26, 0x20	; 32
     610:	81 e0       	ldi	r24, 0x01	; 1
     612:	90 e0       	ldi	r25, 0x00	; 0
     614:	01 88       	ldd	r0, Z+17	; 0x11
     616:	02 c0       	rjmp	.+4      	; 0x61c <_ZN13Character_LCD11SendCommandEh+0xd0>
     618:	88 0f       	add	r24, r24
     61a:	99 1f       	adc	r25, r25
     61c:	0a 94       	dec	r0
     61e:	e2 f7       	brpl	.-8      	; 0x618 <_ZN13Character_LCD11SendCommandEh+0xcc>
     620:	82 2b       	or	r24, r18
     622:	90 96       	adiw	r26, 0x20	; 32
     624:	8c 93       	st	X, r24
     626:	66 23       	and	r22, r22
     628:	94 f0       	brlt	.+36     	; 0x64e <_ZN13Character_LCD11SendCommandEh+0x102>
     62a:	a2 89       	ldd	r26, Z+18	; 0x12
     62c:	b0 e0       	ldi	r27, 0x00	; 0
     62e:	90 96       	adiw	r26, 0x20	; 32
     630:	2c 91       	ld	r18, X
     632:	90 97       	sbiw	r26, 0x20	; 32
     634:	81 e0       	ldi	r24, 0x01	; 1
     636:	90 e0       	ldi	r25, 0x00	; 0
     638:	04 88       	ldd	r0, Z+20	; 0x14
     63a:	02 c0       	rjmp	.+4      	; 0x640 <_ZN13Character_LCD11SendCommandEh+0xf4>
     63c:	88 0f       	add	r24, r24
     63e:	99 1f       	adc	r25, r25
     640:	0a 94       	dec	r0
     642:	e2 f7       	brpl	.-8      	; 0x63c <_ZN13Character_LCD11SendCommandEh+0xf0>
     644:	80 95       	com	r24
     646:	82 23       	and	r24, r18
     648:	90 96       	adiw	r26, 0x20	; 32
     64a:	8c 93       	st	X, r24
     64c:	10 c0       	rjmp	.+32     	; 0x66e <_ZN13Character_LCD11SendCommandEh+0x122>
     64e:	a2 89       	ldd	r26, Z+18	; 0x12
     650:	b0 e0       	ldi	r27, 0x00	; 0
     652:	90 96       	adiw	r26, 0x20	; 32
     654:	2c 91       	ld	r18, X
     656:	90 97       	sbiw	r26, 0x20	; 32
     658:	81 e0       	ldi	r24, 0x01	; 1
     65a:	90 e0       	ldi	r25, 0x00	; 0
     65c:	04 88       	ldd	r0, Z+20	; 0x14
     65e:	02 c0       	rjmp	.+4      	; 0x664 <_ZN13Character_LCD11SendCommandEh+0x118>
     660:	88 0f       	add	r24, r24
     662:	99 1f       	adc	r25, r25
     664:	0a 94       	dec	r0
     666:	e2 f7       	brpl	.-8      	; 0x660 <_ZN13Character_LCD11SendCommandEh+0x114>
     668:	82 2b       	or	r24, r18
     66a:	90 96       	adiw	r26, 0x20	; 32
     66c:	8c 93       	st	X, r24
     66e:	a6 81       	ldd	r26, Z+6	; 0x06
     670:	b0 e0       	ldi	r27, 0x00	; 0
     672:	90 96       	adiw	r26, 0x20	; 32
     674:	4c 91       	ld	r20, X
     676:	90 97       	sbiw	r26, 0x20	; 32
     678:	81 e0       	ldi	r24, 0x01	; 1
     67a:	90 e0       	ldi	r25, 0x00	; 0
     67c:	9c 01       	movw	r18, r24
     67e:	00 84       	ldd	r0, Z+8	; 0x08
     680:	02 c0       	rjmp	.+4      	; 0x686 <_ZN13Character_LCD11SendCommandEh+0x13a>
     682:	22 0f       	add	r18, r18
     684:	33 1f       	adc	r19, r19
     686:	0a 94       	dec	r0
     688:	e2 f7       	brpl	.-8      	; 0x682 <_ZN13Character_LCD11SendCommandEh+0x136>
     68a:	24 2b       	or	r18, r20
     68c:	90 96       	adiw	r26, 0x20	; 32
     68e:	2c 93       	st	X, r18
     690:	af ec       	ldi	r26, 0xCF	; 207
     692:	b7 e0       	ldi	r27, 0x07	; 7
     694:	11 97       	sbiw	r26, 0x01	; 1
     696:	f1 f7       	brne	.-4      	; 0x694 <_ZN13Character_LCD11SendCommandEh+0x148>
     698:	00 c0       	rjmp	.+0      	; 0x69a <_ZN13Character_LCD11SendCommandEh+0x14e>
     69a:	00 00       	nop
     69c:	a6 81       	ldd	r26, Z+6	; 0x06
     69e:	b0 e0       	ldi	r27, 0x00	; 0
     6a0:	90 96       	adiw	r26, 0x20	; 32
     6a2:	2c 91       	ld	r18, X
     6a4:	90 97       	sbiw	r26, 0x20	; 32
     6a6:	00 84       	ldd	r0, Z+8	; 0x08
     6a8:	02 c0       	rjmp	.+4      	; 0x6ae <_ZN13Character_LCD11SendCommandEh+0x162>
     6aa:	88 0f       	add	r24, r24
     6ac:	99 1f       	adc	r25, r25
     6ae:	0a 94       	dec	r0
     6b0:	e2 f7       	brpl	.-8      	; 0x6aa <_ZN13Character_LCD11SendCommandEh+0x15e>
     6b2:	80 95       	com	r24
     6b4:	82 23       	and	r24, r18
     6b6:	90 96       	adiw	r26, 0x20	; 32
     6b8:	8c 93       	st	X, r24
     6ba:	8f ec       	ldi	r24, 0xCF	; 207
     6bc:	97 e0       	ldi	r25, 0x07	; 7
     6be:	01 97       	sbiw	r24, 0x01	; 1
     6c0:	f1 f7       	brne	.-4      	; 0x6be <_ZN13Character_LCD11SendCommandEh+0x172>
     6c2:	00 c0       	rjmp	.+0      	; 0x6c4 <_ZN13Character_LCD11SendCommandEh+0x178>
     6c4:	00 00       	nop
     6c6:	60 fd       	sbrc	r22, 0
     6c8:	12 c0       	rjmp	.+36     	; 0x6ee <_ZN13Character_LCD11SendCommandEh+0x1a2>
     6ca:	a1 85       	ldd	r26, Z+9	; 0x09
     6cc:	b0 e0       	ldi	r27, 0x00	; 0
     6ce:	90 96       	adiw	r26, 0x20	; 32
     6d0:	2c 91       	ld	r18, X
     6d2:	90 97       	sbiw	r26, 0x20	; 32
     6d4:	81 e0       	ldi	r24, 0x01	; 1
     6d6:	90 e0       	ldi	r25, 0x00	; 0
     6d8:	03 84       	ldd	r0, Z+11	; 0x0b
     6da:	02 c0       	rjmp	.+4      	; 0x6e0 <_ZN13Character_LCD11SendCommandEh+0x194>
     6dc:	88 0f       	add	r24, r24
     6de:	99 1f       	adc	r25, r25
     6e0:	0a 94       	dec	r0
     6e2:	e2 f7       	brpl	.-8      	; 0x6dc <_ZN13Character_LCD11SendCommandEh+0x190>
     6e4:	80 95       	com	r24
     6e6:	82 23       	and	r24, r18
     6e8:	90 96       	adiw	r26, 0x20	; 32
     6ea:	8c 93       	st	X, r24
     6ec:	10 c0       	rjmp	.+32     	; 0x70e <_ZN13Character_LCD11SendCommandEh+0x1c2>
     6ee:	a1 85       	ldd	r26, Z+9	; 0x09
     6f0:	b0 e0       	ldi	r27, 0x00	; 0
     6f2:	90 96       	adiw	r26, 0x20	; 32
     6f4:	2c 91       	ld	r18, X
     6f6:	90 97       	sbiw	r26, 0x20	; 32
     6f8:	81 e0       	ldi	r24, 0x01	; 1
     6fa:	90 e0       	ldi	r25, 0x00	; 0
     6fc:	03 84       	ldd	r0, Z+11	; 0x0b
     6fe:	02 c0       	rjmp	.+4      	; 0x704 <_ZN13Character_LCD11SendCommandEh+0x1b8>
     700:	88 0f       	add	r24, r24
     702:	99 1f       	adc	r25, r25
     704:	0a 94       	dec	r0
     706:	e2 f7       	brpl	.-8      	; 0x700 <_ZN13Character_LCD11SendCommandEh+0x1b4>
     708:	82 2b       	or	r24, r18
     70a:	90 96       	adiw	r26, 0x20	; 32
     70c:	8c 93       	st	X, r24
     70e:	61 fd       	sbrc	r22, 1
     710:	12 c0       	rjmp	.+36     	; 0x736 <_ZN13Character_LCD11SendCommandEh+0x1ea>
     712:	a4 85       	ldd	r26, Z+12	; 0x0c
     714:	b0 e0       	ldi	r27, 0x00	; 0
     716:	90 96       	adiw	r26, 0x20	; 32
     718:	2c 91       	ld	r18, X
     71a:	90 97       	sbiw	r26, 0x20	; 32
     71c:	81 e0       	ldi	r24, 0x01	; 1
     71e:	90 e0       	ldi	r25, 0x00	; 0
     720:	06 84       	ldd	r0, Z+14	; 0x0e
     722:	02 c0       	rjmp	.+4      	; 0x728 <_ZN13Character_LCD11SendCommandEh+0x1dc>
     724:	88 0f       	add	r24, r24
     726:	99 1f       	adc	r25, r25
     728:	0a 94       	dec	r0
     72a:	e2 f7       	brpl	.-8      	; 0x724 <_ZN13Character_LCD11SendCommandEh+0x1d8>
     72c:	80 95       	com	r24
     72e:	82 23       	and	r24, r18
     730:	90 96       	adiw	r26, 0x20	; 32
     732:	8c 93       	st	X, r24
     734:	10 c0       	rjmp	.+32     	; 0x756 <_ZN13Character_LCD11SendCommandEh+0x20a>
     736:	a4 85       	ldd	r26, Z+12	; 0x0c
     738:	b0 e0       	ldi	r27, 0x00	; 0
     73a:	90 96       	adiw	r26, 0x20	; 32
     73c:	2c 91       	ld	r18, X
     73e:	90 97       	sbiw	r26, 0x20	; 32
     740:	81 e0       	ldi	r24, 0x01	; 1
     742:	90 e0       	ldi	r25, 0x00	; 0
     744:	06 84       	ldd	r0, Z+14	; 0x0e
     746:	02 c0       	rjmp	.+4      	; 0x74c <_ZN13Character_LCD11SendCommandEh+0x200>
     748:	88 0f       	add	r24, r24
     74a:	99 1f       	adc	r25, r25
     74c:	0a 94       	dec	r0
     74e:	e2 f7       	brpl	.-8      	; 0x748 <_ZN13Character_LCD11SendCommandEh+0x1fc>
     750:	82 2b       	or	r24, r18
     752:	90 96       	adiw	r26, 0x20	; 32
     754:	8c 93       	st	X, r24
     756:	62 fd       	sbrc	r22, 2
     758:	12 c0       	rjmp	.+36     	; 0x77e <_ZN13Character_LCD11SendCommandEh+0x232>
     75a:	a7 85       	ldd	r26, Z+15	; 0x0f
     75c:	b0 e0       	ldi	r27, 0x00	; 0
     75e:	90 96       	adiw	r26, 0x20	; 32
     760:	2c 91       	ld	r18, X
     762:	90 97       	sbiw	r26, 0x20	; 32
     764:	81 e0       	ldi	r24, 0x01	; 1
     766:	90 e0       	ldi	r25, 0x00	; 0
     768:	01 88       	ldd	r0, Z+17	; 0x11
     76a:	02 c0       	rjmp	.+4      	; 0x770 <_ZN13Character_LCD11SendCommandEh+0x224>
     76c:	88 0f       	add	r24, r24
     76e:	99 1f       	adc	r25, r25
     770:	0a 94       	dec	r0
     772:	e2 f7       	brpl	.-8      	; 0x76c <_ZN13Character_LCD11SendCommandEh+0x220>
     774:	80 95       	com	r24
     776:	82 23       	and	r24, r18
     778:	90 96       	adiw	r26, 0x20	; 32
     77a:	8c 93       	st	X, r24
     77c:	10 c0       	rjmp	.+32     	; 0x79e <_ZN13Character_LCD11SendCommandEh+0x252>
     77e:	a7 85       	ldd	r26, Z+15	; 0x0f
     780:	b0 e0       	ldi	r27, 0x00	; 0
     782:	90 96       	adiw	r26, 0x20	; 32
     784:	2c 91       	ld	r18, X
     786:	90 97       	sbiw	r26, 0x20	; 32
     788:	81 e0       	ldi	r24, 0x01	; 1
     78a:	90 e0       	ldi	r25, 0x00	; 0
     78c:	01 88       	ldd	r0, Z+17	; 0x11
     78e:	02 c0       	rjmp	.+4      	; 0x794 <_ZN13Character_LCD11SendCommandEh+0x248>
     790:	88 0f       	add	r24, r24
     792:	99 1f       	adc	r25, r25
     794:	0a 94       	dec	r0
     796:	e2 f7       	brpl	.-8      	; 0x790 <_ZN13Character_LCD11SendCommandEh+0x244>
     798:	82 2b       	or	r24, r18
     79a:	90 96       	adiw	r26, 0x20	; 32
     79c:	8c 93       	st	X, r24
     79e:	63 fd       	sbrc	r22, 3
     7a0:	12 c0       	rjmp	.+36     	; 0x7c6 <_ZN13Character_LCD11SendCommandEh+0x27a>
     7a2:	a2 89       	ldd	r26, Z+18	; 0x12
     7a4:	b0 e0       	ldi	r27, 0x00	; 0
     7a6:	90 96       	adiw	r26, 0x20	; 32
     7a8:	2c 91       	ld	r18, X
     7aa:	90 97       	sbiw	r26, 0x20	; 32
     7ac:	81 e0       	ldi	r24, 0x01	; 1
     7ae:	90 e0       	ldi	r25, 0x00	; 0
     7b0:	04 88       	ldd	r0, Z+20	; 0x14
     7b2:	02 c0       	rjmp	.+4      	; 0x7b8 <_ZN13Character_LCD11SendCommandEh+0x26c>
     7b4:	88 0f       	add	r24, r24
     7b6:	99 1f       	adc	r25, r25
     7b8:	0a 94       	dec	r0
     7ba:	e2 f7       	brpl	.-8      	; 0x7b4 <_ZN13Character_LCD11SendCommandEh+0x268>
     7bc:	80 95       	com	r24
     7be:	82 23       	and	r24, r18
     7c0:	90 96       	adiw	r26, 0x20	; 32
     7c2:	8c 93       	st	X, r24
     7c4:	10 c0       	rjmp	.+32     	; 0x7e6 <_ZN13Character_LCD11SendCommandEh+0x29a>
     7c6:	a2 89       	ldd	r26, Z+18	; 0x12
     7c8:	b0 e0       	ldi	r27, 0x00	; 0
     7ca:	90 96       	adiw	r26, 0x20	; 32
     7cc:	2c 91       	ld	r18, X
     7ce:	90 97       	sbiw	r26, 0x20	; 32
     7d0:	81 e0       	ldi	r24, 0x01	; 1
     7d2:	90 e0       	ldi	r25, 0x00	; 0
     7d4:	04 88       	ldd	r0, Z+20	; 0x14
     7d6:	02 c0       	rjmp	.+4      	; 0x7dc <_ZN13Character_LCD11SendCommandEh+0x290>
     7d8:	88 0f       	add	r24, r24
     7da:	99 1f       	adc	r25, r25
     7dc:	0a 94       	dec	r0
     7de:	e2 f7       	brpl	.-8      	; 0x7d8 <_ZN13Character_LCD11SendCommandEh+0x28c>
     7e0:	82 2b       	or	r24, r18
     7e2:	90 96       	adiw	r26, 0x20	; 32
     7e4:	8c 93       	st	X, r24
     7e6:	a6 81       	ldd	r26, Z+6	; 0x06
     7e8:	b0 e0       	ldi	r27, 0x00	; 0
     7ea:	90 96       	adiw	r26, 0x20	; 32
     7ec:	4c 91       	ld	r20, X
     7ee:	90 97       	sbiw	r26, 0x20	; 32
     7f0:	81 e0       	ldi	r24, 0x01	; 1
     7f2:	90 e0       	ldi	r25, 0x00	; 0
     7f4:	9c 01       	movw	r18, r24
     7f6:	00 84       	ldd	r0, Z+8	; 0x08
     7f8:	02 c0       	rjmp	.+4      	; 0x7fe <_ZN13Character_LCD11SendCommandEh+0x2b2>
     7fa:	22 0f       	add	r18, r18
     7fc:	33 1f       	adc	r19, r19
     7fe:	0a 94       	dec	r0
     800:	e2 f7       	brpl	.-8      	; 0x7fa <_ZN13Character_LCD11SendCommandEh+0x2ae>
     802:	24 2b       	or	r18, r20
     804:	90 96       	adiw	r26, 0x20	; 32
     806:	2c 93       	st	X, r18
     808:	af ec       	ldi	r26, 0xCF	; 207
     80a:	b7 e0       	ldi	r27, 0x07	; 7
     80c:	11 97       	sbiw	r26, 0x01	; 1
     80e:	f1 f7       	brne	.-4      	; 0x80c <_ZN13Character_LCD11SendCommandEh+0x2c0>
     810:	00 c0       	rjmp	.+0      	; 0x812 <_ZN13Character_LCD11SendCommandEh+0x2c6>
     812:	00 00       	nop
     814:	a6 81       	ldd	r26, Z+6	; 0x06
     816:	b0 e0       	ldi	r27, 0x00	; 0
     818:	90 96       	adiw	r26, 0x20	; 32
     81a:	2c 91       	ld	r18, X
     81c:	90 97       	sbiw	r26, 0x20	; 32
     81e:	00 84       	ldd	r0, Z+8	; 0x08
     820:	02 c0       	rjmp	.+4      	; 0x826 <_ZN13Character_LCD11SendCommandEh+0x2da>
     822:	88 0f       	add	r24, r24
     824:	99 1f       	adc	r25, r25
     826:	0a 94       	dec	r0
     828:	e2 f7       	brpl	.-8      	; 0x822 <_ZN13Character_LCD11SendCommandEh+0x2d6>
     82a:	80 95       	com	r24
     82c:	82 23       	and	r24, r18
     82e:	90 96       	adiw	r26, 0x20	; 32
     830:	8c 93       	st	X, r24
     832:	8f ec       	ldi	r24, 0xCF	; 207
     834:	97 e0       	ldi	r25, 0x07	; 7
     836:	01 97       	sbiw	r24, 0x01	; 1
     838:	f1 f7       	brne	.-4      	; 0x836 <_ZN13Character_LCD11SendCommandEh+0x2ea>
     83a:	00 c0       	rjmp	.+0      	; 0x83c <_ZN13Character_LCD11SendCommandEh+0x2f0>
     83c:	00 00       	nop
     83e:	08 95       	ret

00000840 <_ZN13Character_LCD3ClrEv>:
     840:	61 e0       	ldi	r22, 0x01	; 1
     842:	0e 94 a6 02 	call	0x54c	; 0x54c <_ZN13Character_LCD11SendCommandEh>
     846:	8f ec       	ldi	r24, 0xCF	; 207
     848:	97 e0       	ldi	r25, 0x07	; 7
     84a:	01 97       	sbiw	r24, 0x01	; 1
     84c:	f1 f7       	brne	.-4      	; 0x84a <_ZN13Character_LCD3ClrEv+0xa>
     84e:	00 c0       	rjmp	.+0      	; 0x850 <_ZN13Character_LCD3ClrEv+0x10>
     850:	00 00       	nop
     852:	08 95       	ret

00000854 <_ZN13Character_LCD6GotoXYEhh>:
     854:	42 30       	cpi	r20, 0x02	; 2
     856:	31 f0       	breq	.+12     	; 0x864 <__stack+0x5>
     858:	43 30       	cpi	r20, 0x03	; 3
     85a:	31 f0       	breq	.+12     	; 0x868 <__stack+0x9>
     85c:	41 30       	cpi	r20, 0x01	; 1
     85e:	29 f4       	brne	.+10     	; 0x86a <__stack+0xb>
     860:	60 5c       	subi	r22, 0xC0	; 192
     862:	03 c0       	rjmp	.+6      	; 0x86a <__stack+0xb>
     864:	6c 5e       	subi	r22, 0xEC	; 236
     866:	01 c0       	rjmp	.+2      	; 0x86a <__stack+0xb>
     868:	6c 5a       	subi	r22, 0xAC	; 172
     86a:	60 68       	ori	r22, 0x80	; 128
     86c:	0e 94 a6 02 	call	0x54c	; 0x54c <_ZN13Character_LCD11SendCommandEh>
     870:	8f ec       	ldi	r24, 0xCF	; 207
     872:	97 e0       	ldi	r25, 0x07	; 7
     874:	01 97       	sbiw	r24, 0x01	; 1
     876:	f1 f7       	brne	.-4      	; 0x874 <__stack+0x15>
     878:	00 c0       	rjmp	.+0      	; 0x87a <__stack+0x1b>
     87a:	00 00       	nop
     87c:	08 95       	ret

0000087e <_ZN13Character_LCD10SendStringEPchh>:
     87e:	0f 93       	push	r16
     880:	1f 93       	push	r17
     882:	cf 93       	push	r28
     884:	df 93       	push	r29
     886:	8c 01       	movw	r16, r24
     888:	eb 01       	movw	r28, r22
     88a:	64 2f       	mov	r22, r20
     88c:	42 2f       	mov	r20, r18
     88e:	0e 94 2a 04 	call	0x854	; 0x854 <_ZN13Character_LCD6GotoXYEhh>
     892:	68 81       	ld	r22, Y
     894:	66 23       	and	r22, r22
     896:	39 f0       	breq	.+14     	; 0x8a6 <_ZN13Character_LCD10SendStringEPchh+0x28>
     898:	21 96       	adiw	r28, 0x01	; 1
     89a:	c8 01       	movw	r24, r16
     89c:	0e 94 c4 00 	call	0x188	; 0x188 <_ZN13Character_LCD8SendCharEh>
     8a0:	69 91       	ld	r22, Y+
     8a2:	61 11       	cpse	r22, r1
     8a4:	fa cf       	rjmp	.-12     	; 0x89a <_ZN13Character_LCD10SendStringEPchh+0x1c>
     8a6:	df 91       	pop	r29
     8a8:	cf 91       	pop	r28
     8aa:	1f 91       	pop	r17
     8ac:	0f 91       	pop	r16
     8ae:	08 95       	ret

000008b0 <_ZN13Character_LCD11VariableDecEmhh>:
     8b0:	4f 92       	push	r4
     8b2:	5f 92       	push	r5
     8b4:	6f 92       	push	r6
     8b6:	7f 92       	push	r7
     8b8:	8f 92       	push	r8
     8ba:	9f 92       	push	r9
     8bc:	af 92       	push	r10
     8be:	bf 92       	push	r11
     8c0:	cf 92       	push	r12
     8c2:	df 92       	push	r13
     8c4:	ef 92       	push	r14
     8c6:	ff 92       	push	r15
     8c8:	0f 93       	push	r16
     8ca:	1f 93       	push	r17
     8cc:	cf 93       	push	r28
     8ce:	df 93       	push	r29
     8d0:	cd b7       	in	r28, 0x3d	; 61
     8d2:	de b7       	in	r29, 0x3e	; 62
     8d4:	2f 97       	sbiw	r28, 0x0f	; 15
     8d6:	0f b6       	in	r0, 0x3f	; 63
     8d8:	f8 94       	cli
     8da:	de bf       	out	0x3e, r29	; 62
     8dc:	0f be       	out	0x3f, r0	; 63
     8de:	cd bf       	out	0x3d, r28	; 61
     8e0:	4c 01       	movw	r8, r24
     8e2:	6a 01       	movw	r12, r20
     8e4:	7b 01       	movw	r14, r22
     8e6:	40 2f       	mov	r20, r16
     8e8:	62 2f       	mov	r22, r18
     8ea:	0e 94 2a 04 	call	0x854	; 0x854 <_ZN13Character_LCD6GotoXYEhh>
     8ee:	10 e0       	ldi	r17, 0x00	; 0
     8f0:	0f 2e       	mov	r0, r31
     8f2:	fa e0       	ldi	r31, 0x0A	; 10
     8f4:	4f 2e       	mov	r4, r31
     8f6:	51 2c       	mov	r5, r1
     8f8:	61 2c       	mov	r6, r1
     8fa:	71 2c       	mov	r7, r1
     8fc:	f0 2d       	mov	r31, r0
     8fe:	aa 24       	eor	r10, r10
     900:	a3 94       	inc	r10
     902:	b1 2c       	mov	r11, r1
     904:	ac 0e       	add	r10, r28
     906:	bd 1e       	adc	r11, r29
     908:	a1 0e       	add	r10, r17
     90a:	b1 1c       	adc	r11, r1
     90c:	c7 01       	movw	r24, r14
     90e:	b6 01       	movw	r22, r12
     910:	a3 01       	movw	r20, r6
     912:	92 01       	movw	r18, r4
     914:	0e 94 50 0b 	call	0x16a0	; 0x16a0 <__udivmodsi4>
     918:	60 5d       	subi	r22, 0xD0	; 208
     91a:	f5 01       	movw	r30, r10
     91c:	60 83       	st	Z, r22
     91e:	c2 2e       	mov	r12, r18
     920:	d3 2e       	mov	r13, r19
     922:	e4 2e       	mov	r14, r20
     924:	f5 2e       	mov	r15, r21
     926:	1f 5f       	subi	r17, 0xFF	; 255
     928:	c1 14       	cp	r12, r1
     92a:	d1 04       	cpc	r13, r1
     92c:	e1 04       	cpc	r14, r1
     92e:	f1 04       	cpc	r15, r1
     930:	31 f7       	brne	.-52     	; 0x8fe <_ZN13Character_LCD11VariableDecEmhh+0x4e>
     932:	11 23       	and	r17, r17
     934:	69 f0       	breq	.+26     	; 0x950 <_ZN13Character_LCD11VariableDecEmhh+0xa0>
     936:	11 50       	subi	r17, 0x01	; 1
     938:	e1 e0       	ldi	r30, 0x01	; 1
     93a:	f0 e0       	ldi	r31, 0x00	; 0
     93c:	ec 0f       	add	r30, r28
     93e:	fd 1f       	adc	r31, r29
     940:	e1 0f       	add	r30, r17
     942:	f1 1d       	adc	r31, r1
     944:	60 81       	ld	r22, Z
     946:	c4 01       	movw	r24, r8
     948:	0e 94 c4 00 	call	0x188	; 0x188 <_ZN13Character_LCD8SendCharEh>
     94c:	11 11       	cpse	r17, r1
     94e:	f3 cf       	rjmp	.-26     	; 0x936 <_ZN13Character_LCD11VariableDecEmhh+0x86>
     950:	8f ec       	ldi	r24, 0xCF	; 207
     952:	97 e0       	ldi	r25, 0x07	; 7
     954:	01 97       	sbiw	r24, 0x01	; 1
     956:	f1 f7       	brne	.-4      	; 0x954 <_ZN13Character_LCD11VariableDecEmhh+0xa4>
     958:	00 c0       	rjmp	.+0      	; 0x95a <_ZN13Character_LCD11VariableDecEmhh+0xaa>
     95a:	00 00       	nop
     95c:	2f 96       	adiw	r28, 0x0f	; 15
     95e:	0f b6       	in	r0, 0x3f	; 63
     960:	f8 94       	cli
     962:	de bf       	out	0x3e, r29	; 62
     964:	0f be       	out	0x3f, r0	; 63
     966:	cd bf       	out	0x3d, r28	; 61
     968:	df 91       	pop	r29
     96a:	cf 91       	pop	r28
     96c:	1f 91       	pop	r17
     96e:	0f 91       	pop	r16
     970:	ff 90       	pop	r15
     972:	ef 90       	pop	r14
     974:	df 90       	pop	r13
     976:	cf 90       	pop	r12
     978:	bf 90       	pop	r11
     97a:	af 90       	pop	r10
     97c:	9f 90       	pop	r9
     97e:	8f 90       	pop	r8
     980:	7f 90       	pop	r7
     982:	6f 90       	pop	r6
     984:	5f 90       	pop	r5
     986:	4f 90       	pop	r4
     988:	08 95       	ret

0000098a <_ZN13Character_LCD11VariableHexEmhh>:
     98a:	8f 92       	push	r8
     98c:	9f 92       	push	r9
     98e:	af 92       	push	r10
     990:	bf 92       	push	r11
     992:	ef 92       	push	r14
     994:	ff 92       	push	r15
     996:	0f 93       	push	r16
     998:	1f 93       	push	r17
     99a:	cf 93       	push	r28
     99c:	df 93       	push	r29
     99e:	cd b7       	in	r28, 0x3d	; 61
     9a0:	de b7       	in	r29, 0x3e	; 62
     9a2:	6e 97       	sbiw	r28, 0x1e	; 30
     9a4:	0f b6       	in	r0, 0x3f	; 63
     9a6:	f8 94       	cli
     9a8:	de bf       	out	0x3e, r29	; 62
     9aa:	0f be       	out	0x3f, r0	; 63
     9ac:	cd bf       	out	0x3d, r28	; 61
     9ae:	7c 01       	movw	r14, r24
     9b0:	4a 01       	movw	r8, r20
     9b2:	5b 01       	movw	r10, r22
     9b4:	40 2f       	mov	r20, r16
     9b6:	62 2f       	mov	r22, r18
     9b8:	0e 94 2a 04 	call	0x854	; 0x854 <_ZN13Character_LCD6GotoXYEhh>
     9bc:	10 e0       	ldi	r17, 0x00	; 0
     9be:	88 2d       	mov	r24, r8
     9c0:	8f 70       	andi	r24, 0x0F	; 15
     9c2:	8a 30       	cpi	r24, 0x0A	; 10
     9c4:	48 f4       	brcc	.+18     	; 0x9d8 <_ZN13Character_LCD11VariableHexEmhh+0x4e>
     9c6:	e1 e0       	ldi	r30, 0x01	; 1
     9c8:	f0 e0       	ldi	r31, 0x00	; 0
     9ca:	ec 0f       	add	r30, r28
     9cc:	fd 1f       	adc	r31, r29
     9ce:	e1 0f       	add	r30, r17
     9d0:	f1 1d       	adc	r31, r1
     9d2:	80 5d       	subi	r24, 0xD0	; 208
     9d4:	80 83       	st	Z, r24
     9d6:	08 c0       	rjmp	.+16     	; 0x9e8 <_ZN13Character_LCD11VariableHexEmhh+0x5e>
     9d8:	e1 e0       	ldi	r30, 0x01	; 1
     9da:	f0 e0       	ldi	r31, 0x00	; 0
     9dc:	ec 0f       	add	r30, r28
     9de:	fd 1f       	adc	r31, r29
     9e0:	e1 0f       	add	r30, r17
     9e2:	f1 1d       	adc	r31, r1
     9e4:	89 5a       	subi	r24, 0xA9	; 169
     9e6:	80 83       	st	Z, r24
     9e8:	68 94       	set
     9ea:	13 f8       	bld	r1, 3
     9ec:	b6 94       	lsr	r11
     9ee:	a7 94       	ror	r10
     9f0:	97 94       	ror	r9
     9f2:	87 94       	ror	r8
     9f4:	16 94       	lsr	r1
     9f6:	d1 f7       	brne	.-12     	; 0x9ec <_ZN13Character_LCD11VariableHexEmhh+0x62>
     9f8:	1f 5f       	subi	r17, 0xFF	; 255
     9fa:	81 14       	cp	r8, r1
     9fc:	91 04       	cpc	r9, r1
     9fe:	a1 04       	cpc	r10, r1
     a00:	b1 04       	cpc	r11, r1
     a02:	e9 f6       	brne	.-70     	; 0x9be <_ZN13Character_LCD11VariableHexEmhh+0x34>
     a04:	11 23       	and	r17, r17
     a06:	69 f0       	breq	.+26     	; 0xa22 <_ZN13Character_LCD11VariableHexEmhh+0x98>
     a08:	11 50       	subi	r17, 0x01	; 1
     a0a:	e1 e0       	ldi	r30, 0x01	; 1
     a0c:	f0 e0       	ldi	r31, 0x00	; 0
     a0e:	ec 0f       	add	r30, r28
     a10:	fd 1f       	adc	r31, r29
     a12:	e1 0f       	add	r30, r17
     a14:	f1 1d       	adc	r31, r1
     a16:	60 81       	ld	r22, Z
     a18:	c7 01       	movw	r24, r14
     a1a:	0e 94 c4 00 	call	0x188	; 0x188 <_ZN13Character_LCD8SendCharEh>
     a1e:	11 11       	cpse	r17, r1
     a20:	f3 cf       	rjmp	.-26     	; 0xa08 <_ZN13Character_LCD11VariableHexEmhh+0x7e>
     a22:	8f ec       	ldi	r24, 0xCF	; 207
     a24:	97 e0       	ldi	r25, 0x07	; 7
     a26:	01 97       	sbiw	r24, 0x01	; 1
     a28:	f1 f7       	brne	.-4      	; 0xa26 <_ZN13Character_LCD11VariableHexEmhh+0x9c>
     a2a:	00 c0       	rjmp	.+0      	; 0xa2c <_ZN13Character_LCD11VariableHexEmhh+0xa2>
     a2c:	00 00       	nop
     a2e:	6e 96       	adiw	r28, 0x1e	; 30
     a30:	0f b6       	in	r0, 0x3f	; 63
     a32:	f8 94       	cli
     a34:	de bf       	out	0x3e, r29	; 62
     a36:	0f be       	out	0x3f, r0	; 63
     a38:	cd bf       	out	0x3d, r28	; 61
     a3a:	df 91       	pop	r29
     a3c:	cf 91       	pop	r28
     a3e:	1f 91       	pop	r17
     a40:	0f 91       	pop	r16
     a42:	ff 90       	pop	r15
     a44:	ef 90       	pop	r14
     a46:	bf 90       	pop	r11
     a48:	af 90       	pop	r10
     a4a:	9f 90       	pop	r9
     a4c:	8f 90       	pop	r8
     a4e:	08 95       	ret

00000a50 <_ZN13Character_LCD10DefinecharEPKhh>:
     a50:	df 92       	push	r13
     a52:	ef 92       	push	r14
     a54:	ff 92       	push	r15
     a56:	0f 93       	push	r16
     a58:	1f 93       	push	r17
     a5a:	cf 93       	push	r28
     a5c:	df 93       	push	r29
     a5e:	7c 01       	movw	r14, r24
     a60:	c4 2f       	mov	r28, r20
     a62:	cc 0f       	add	r28, r28
     a64:	cc 0f       	add	r28, r28
     a66:	cc 0f       	add	r28, r28
     a68:	c0 5c       	subi	r28, 0xC0	; 192
     a6a:	06 2f       	mov	r16, r22
     a6c:	17 2f       	mov	r17, r23
     a6e:	0f 2e       	mov	r0, r31
     a70:	f9 e0       	ldi	r31, 0x09	; 9
     a72:	df 2e       	mov	r13, r31
     a74:	f0 2d       	mov	r31, r0
     a76:	dc 0e       	add	r13, r28
     a78:	f8 01       	movw	r30, r16
     a7a:	d4 91       	lpm	r29, Z
     a7c:	6c 2f       	mov	r22, r28
     a7e:	c7 01       	movw	r24, r14
     a80:	0e 94 a6 02 	call	0x54c	; 0x54c <_ZN13Character_LCD11SendCommandEh>
     a84:	cf 5f       	subi	r28, 0xFF	; 255
     a86:	6d 2f       	mov	r22, r29
     a88:	c7 01       	movw	r24, r14
     a8a:	0e 94 c4 00 	call	0x188	; 0x188 <_ZN13Character_LCD8SendCharEh>
     a8e:	0f 5f       	subi	r16, 0xFF	; 255
     a90:	1f 4f       	sbci	r17, 0xFF	; 255
     a92:	cd 11       	cpse	r28, r13
     a94:	f1 cf       	rjmp	.-30     	; 0xa78 <_ZN13Character_LCD10DefinecharEPKhh+0x28>
     a96:	8f ec       	ldi	r24, 0xCF	; 207
     a98:	97 e0       	ldi	r25, 0x07	; 7
     a9a:	01 97       	sbiw	r24, 0x01	; 1
     a9c:	f1 f7       	brne	.-4      	; 0xa9a <_ZN13Character_LCD10DefinecharEPKhh+0x4a>
     a9e:	00 c0       	rjmp	.+0      	; 0xaa0 <_ZN13Character_LCD10DefinecharEPKhh+0x50>
     aa0:	00 00       	nop
     aa2:	df 91       	pop	r29
     aa4:	cf 91       	pop	r28
     aa6:	1f 91       	pop	r17
     aa8:	0f 91       	pop	r16
     aaa:	ff 90       	pop	r15
     aac:	ef 90       	pop	r14
     aae:	df 90       	pop	r13
     ab0:	08 95       	ret

00000ab2 <_ZN13Character_LCD10CopyStringEPKhhh>:
     ab2:	ef 92       	push	r14
     ab4:	ff 92       	push	r15
     ab6:	0f 93       	push	r16
     ab8:	1f 93       	push	r17
     aba:	cf 93       	push	r28
     abc:	7c 01       	movw	r14, r24
     abe:	8b 01       	movw	r16, r22
     ac0:	64 2f       	mov	r22, r20
     ac2:	42 2f       	mov	r20, r18
     ac4:	0e 94 2a 04 	call	0x854	; 0x854 <_ZN13Character_LCD6GotoXYEhh>
     ac8:	b8 01       	movw	r22, r16
     aca:	f8 01       	movw	r30, r16
     acc:	84 91       	lpm	r24, Z
     ace:	88 23       	and	r24, r24
     ad0:	71 f0       	breq	.+28     	; 0xaee <_ZN13Character_LCD10CopyStringEPKhhh+0x3c>
     ad2:	c0 e0       	ldi	r28, 0x00	; 0
     ad4:	fb 01       	movw	r30, r22
     ad6:	64 91       	lpm	r22, Z
     ad8:	c7 01       	movw	r24, r14
     ada:	0e 94 c4 00 	call	0x188	; 0x188 <_ZN13Character_LCD8SendCharEh>
     ade:	cf 5f       	subi	r28, 0xFF	; 255
     ae0:	b8 01       	movw	r22, r16
     ae2:	6c 0f       	add	r22, r28
     ae4:	71 1d       	adc	r23, r1
     ae6:	fb 01       	movw	r30, r22
     ae8:	84 91       	lpm	r24, Z
     aea:	81 11       	cpse	r24, r1
     aec:	f3 cf       	rjmp	.-26     	; 0xad4 <_ZN13Character_LCD10CopyStringEPKhhh+0x22>
     aee:	8f ec       	ldi	r24, 0xCF	; 207
     af0:	97 e0       	ldi	r25, 0x07	; 7
     af2:	01 97       	sbiw	r24, 0x01	; 1
     af4:	f1 f7       	brne	.-4      	; 0xaf2 <_ZN13Character_LCD10CopyStringEPKhhh+0x40>
     af6:	00 c0       	rjmp	.+0      	; 0xaf8 <_ZN13Character_LCD10CopyStringEPKhhh+0x46>
     af8:	00 00       	nop
     afa:	cf 91       	pop	r28
     afc:	1f 91       	pop	r17
     afe:	0f 91       	pop	r16
     b00:	ff 90       	pop	r15
     b02:	ef 90       	pop	r14
     b04:	08 95       	ret

00000b06 <_ZN13Character_LCD4InitE18Mode_Character_LCD>:
     b06:	ef 92       	push	r14
     b08:	ff 92       	push	r15
     b0a:	1f 93       	push	r17
     b0c:	cf 93       	push	r28
     b0e:	df 93       	push	r29
     b10:	ec 01       	movw	r28, r24
     b12:	16 2f       	mov	r17, r22
     b14:	8f e2       	ldi	r24, 0x2F	; 47
     b16:	95 e7       	ldi	r25, 0x75	; 117
     b18:	01 97       	sbiw	r24, 0x01	; 1
     b1a:	f1 f7       	brne	.-4      	; 0xb18 <_ZN13Character_LCD4InitE18Mode_Character_LCD+0x12>
     b1c:	00 c0       	rjmp	.+0      	; 0xb1e <_ZN13Character_LCD4InitE18Mode_Character_LCD+0x18>
     b1e:	00 00       	nop
     b20:	e9 85       	ldd	r30, Y+9	; 0x09
     b22:	f0 e0       	ldi	r31, 0x00	; 0
     b24:	30 a1       	ldd	r19, Z+32	; 0x20
     b26:	81 e0       	ldi	r24, 0x01	; 1
     b28:	90 e0       	ldi	r25, 0x00	; 0
     b2a:	ac 01       	movw	r20, r24
     b2c:	0b 84       	ldd	r0, Y+11	; 0x0b
     b2e:	02 c0       	rjmp	.+4      	; 0xb34 <_ZN13Character_LCD4InitE18Mode_Character_LCD+0x2e>
     b30:	44 0f       	add	r20, r20
     b32:	55 1f       	adc	r21, r21
     b34:	0a 94       	dec	r0
     b36:	e2 f7       	brpl	.-8      	; 0xb30 <_ZN13Character_LCD4InitE18Mode_Character_LCD+0x2a>
     b38:	24 2f       	mov	r18, r20
     b3a:	20 95       	com	r18
     b3c:	23 23       	and	r18, r19
     b3e:	20 a3       	std	Z+32, r18	; 0x20
     b40:	ec 85       	ldd	r30, Y+12	; 0x0c
     b42:	f0 e0       	ldi	r31, 0x00	; 0
     b44:	30 a1       	ldd	r19, Z+32	; 0x20
     b46:	ac 01       	movw	r20, r24
     b48:	0e 84       	ldd	r0, Y+14	; 0x0e
     b4a:	02 c0       	rjmp	.+4      	; 0xb50 <_ZN13Character_LCD4InitE18Mode_Character_LCD+0x4a>
     b4c:	44 0f       	add	r20, r20
     b4e:	55 1f       	adc	r21, r21
     b50:	0a 94       	dec	r0
     b52:	e2 f7       	brpl	.-8      	; 0xb4c <_ZN13Character_LCD4InitE18Mode_Character_LCD+0x46>
     b54:	24 2f       	mov	r18, r20
     b56:	20 95       	com	r18
     b58:	23 23       	and	r18, r19
     b5a:	20 a3       	std	Z+32, r18	; 0x20
     b5c:	ef 85       	ldd	r30, Y+15	; 0x0f
     b5e:	f0 e0       	ldi	r31, 0x00	; 0
     b60:	30 a1       	ldd	r19, Z+32	; 0x20
     b62:	ac 01       	movw	r20, r24
     b64:	09 88       	ldd	r0, Y+17	; 0x11
     b66:	02 c0       	rjmp	.+4      	; 0xb6c <_ZN13Character_LCD4InitE18Mode_Character_LCD+0x66>
     b68:	44 0f       	add	r20, r20
     b6a:	55 1f       	adc	r21, r21
     b6c:	0a 94       	dec	r0
     b6e:	e2 f7       	brpl	.-8      	; 0xb68 <_ZN13Character_LCD4InitE18Mode_Character_LCD+0x62>
     b70:	24 2f       	mov	r18, r20
     b72:	20 95       	com	r18
     b74:	23 23       	and	r18, r19
     b76:	20 a3       	std	Z+32, r18	; 0x20
     b78:	ea 89       	ldd	r30, Y+18	; 0x12
     b7a:	f0 e0       	ldi	r31, 0x00	; 0
     b7c:	30 a1       	ldd	r19, Z+32	; 0x20
     b7e:	ac 01       	movw	r20, r24
     b80:	0c 88       	ldd	r0, Y+20	; 0x14
     b82:	02 c0       	rjmp	.+4      	; 0xb88 <_ZN13Character_LCD4InitE18Mode_Character_LCD+0x82>
     b84:	44 0f       	add	r20, r20
     b86:	55 1f       	adc	r21, r21
     b88:	0a 94       	dec	r0
     b8a:	e2 f7       	brpl	.-8      	; 0xb84 <_ZN13Character_LCD4InitE18Mode_Character_LCD+0x7e>
     b8c:	24 2f       	mov	r18, r20
     b8e:	20 95       	com	r18
     b90:	23 23       	and	r18, r19
     b92:	20 a3       	std	Z+32, r18	; 0x20
     b94:	ee 81       	ldd	r30, Y+6	; 0x06
     b96:	f0 e0       	ldi	r31, 0x00	; 0
     b98:	30 a1       	ldd	r19, Z+32	; 0x20
     b9a:	ac 01       	movw	r20, r24
     b9c:	08 84       	ldd	r0, Y+8	; 0x08
     b9e:	02 c0       	rjmp	.+4      	; 0xba4 <_ZN13Character_LCD4InitE18Mode_Character_LCD+0x9e>
     ba0:	44 0f       	add	r20, r20
     ba2:	55 1f       	adc	r21, r21
     ba4:	0a 94       	dec	r0
     ba6:	e2 f7       	brpl	.-8      	; 0xba0 <_ZN13Character_LCD4InitE18Mode_Character_LCD+0x9a>
     ba8:	24 2f       	mov	r18, r20
     baa:	20 95       	com	r18
     bac:	23 23       	and	r18, r19
     bae:	20 a3       	std	Z+32, r18	; 0x20
     bb0:	ea 85       	ldd	r30, Y+10	; 0x0a
     bb2:	f0 e0       	ldi	r31, 0x00	; 0
     bb4:	40 a1       	ldd	r20, Z+32	; 0x20
     bb6:	9c 01       	movw	r18, r24
     bb8:	0b 84       	ldd	r0, Y+11	; 0x0b
     bba:	02 c0       	rjmp	.+4      	; 0xbc0 <_ZN13Character_LCD4InitE18Mode_Character_LCD+0xba>
     bbc:	22 0f       	add	r18, r18
     bbe:	33 1f       	adc	r19, r19
     bc0:	0a 94       	dec	r0
     bc2:	e2 f7       	brpl	.-8      	; 0xbbc <_ZN13Character_LCD4InitE18Mode_Character_LCD+0xb6>
     bc4:	24 2b       	or	r18, r20
     bc6:	20 a3       	std	Z+32, r18	; 0x20
     bc8:	ed 85       	ldd	r30, Y+13	; 0x0d
     bca:	f0 e0       	ldi	r31, 0x00	; 0
     bcc:	40 a1       	ldd	r20, Z+32	; 0x20
     bce:	9c 01       	movw	r18, r24
     bd0:	0e 84       	ldd	r0, Y+14	; 0x0e
     bd2:	02 c0       	rjmp	.+4      	; 0xbd8 <_ZN13Character_LCD4InitE18Mode_Character_LCD+0xd2>
     bd4:	22 0f       	add	r18, r18
     bd6:	33 1f       	adc	r19, r19
     bd8:	0a 94       	dec	r0
     bda:	e2 f7       	brpl	.-8      	; 0xbd4 <_ZN13Character_LCD4InitE18Mode_Character_LCD+0xce>
     bdc:	24 2b       	or	r18, r20
     bde:	20 a3       	std	Z+32, r18	; 0x20
     be0:	e8 89       	ldd	r30, Y+16	; 0x10
     be2:	f0 e0       	ldi	r31, 0x00	; 0
     be4:	40 a1       	ldd	r20, Z+32	; 0x20
     be6:	9c 01       	movw	r18, r24
     be8:	09 88       	ldd	r0, Y+17	; 0x11
     bea:	02 c0       	rjmp	.+4      	; 0xbf0 <_ZN13Character_LCD4InitE18Mode_Character_LCD+0xea>
     bec:	22 0f       	add	r18, r18
     bee:	33 1f       	adc	r19, r19
     bf0:	0a 94       	dec	r0
     bf2:	e2 f7       	brpl	.-8      	; 0xbec <_ZN13Character_LCD4InitE18Mode_Character_LCD+0xe6>
     bf4:	24 2b       	or	r18, r20
     bf6:	20 a3       	std	Z+32, r18	; 0x20
     bf8:	eb 89       	ldd	r30, Y+19	; 0x13
     bfa:	f0 e0       	ldi	r31, 0x00	; 0
     bfc:	40 a1       	ldd	r20, Z+32	; 0x20
     bfe:	9c 01       	movw	r18, r24
     c00:	0c 88       	ldd	r0, Y+20	; 0x14
     c02:	02 c0       	rjmp	.+4      	; 0xc08 <_ZN13Character_LCD4InitE18Mode_Character_LCD+0x102>
     c04:	22 0f       	add	r18, r18
     c06:	33 1f       	adc	r19, r19
     c08:	0a 94       	dec	r0
     c0a:	e2 f7       	brpl	.-8      	; 0xc04 <_ZN13Character_LCD4InitE18Mode_Character_LCD+0xfe>
     c0c:	24 2b       	or	r18, r20
     c0e:	20 a3       	std	Z+32, r18	; 0x20
     c10:	ef 81       	ldd	r30, Y+7	; 0x07
     c12:	f0 e0       	ldi	r31, 0x00	; 0
     c14:	40 a1       	ldd	r20, Z+32	; 0x20
     c16:	9c 01       	movw	r18, r24
     c18:	08 84       	ldd	r0, Y+8	; 0x08
     c1a:	02 c0       	rjmp	.+4      	; 0xc20 <_ZN13Character_LCD4InitE18Mode_Character_LCD+0x11a>
     c1c:	22 0f       	add	r18, r18
     c1e:	33 1f       	adc	r19, r19
     c20:	0a 94       	dec	r0
     c22:	e2 f7       	brpl	.-8      	; 0xc1c <_ZN13Character_LCD4InitE18Mode_Character_LCD+0x116>
     c24:	24 2b       	or	r18, r20
     c26:	20 a3       	std	Z+32, r18	; 0x20
     c28:	e9 81       	ldd	r30, Y+1	; 0x01
     c2a:	f0 e0       	ldi	r31, 0x00	; 0
     c2c:	40 a1       	ldd	r20, Z+32	; 0x20
     c2e:	9c 01       	movw	r18, r24
     c30:	0a 80       	ldd	r0, Y+2	; 0x02
     c32:	02 c0       	rjmp	.+4      	; 0xc38 <_ZN13Character_LCD4InitE18Mode_Character_LCD+0x132>
     c34:	22 0f       	add	r18, r18
     c36:	33 1f       	adc	r19, r19
     c38:	0a 94       	dec	r0
     c3a:	e2 f7       	brpl	.-8      	; 0xc34 <_ZN13Character_LCD4InitE18Mode_Character_LCD+0x12e>
     c3c:	24 2b       	or	r18, r20
     c3e:	20 a3       	std	Z+32, r18	; 0x20
     c40:	ec 81       	ldd	r30, Y+4	; 0x04
     c42:	f0 e0       	ldi	r31, 0x00	; 0
     c44:	40 a1       	ldd	r20, Z+32	; 0x20
     c46:	9c 01       	movw	r18, r24
     c48:	0d 80       	ldd	r0, Y+5	; 0x05
     c4a:	02 c0       	rjmp	.+4      	; 0xc50 <_ZN13Character_LCD4InitE18Mode_Character_LCD+0x14a>
     c4c:	22 0f       	add	r18, r18
     c4e:	33 1f       	adc	r19, r19
     c50:	0a 94       	dec	r0
     c52:	e2 f7       	brpl	.-8      	; 0xc4c <_ZN13Character_LCD4InitE18Mode_Character_LCD+0x146>
     c54:	24 2b       	or	r18, r20
     c56:	20 a3       	std	Z+32, r18	; 0x20
     c58:	e9 85       	ldd	r30, Y+9	; 0x09
     c5a:	f0 e0       	ldi	r31, 0x00	; 0
     c5c:	40 a1       	ldd	r20, Z+32	; 0x20
     c5e:	9c 01       	movw	r18, r24
     c60:	0b 84       	ldd	r0, Y+11	; 0x0b
     c62:	02 c0       	rjmp	.+4      	; 0xc68 <_ZN13Character_LCD4InitE18Mode_Character_LCD+0x162>
     c64:	22 0f       	add	r18, r18
     c66:	33 1f       	adc	r19, r19
     c68:	0a 94       	dec	r0
     c6a:	e2 f7       	brpl	.-8      	; 0xc64 <_ZN13Character_LCD4InitE18Mode_Character_LCD+0x15e>
     c6c:	24 2b       	or	r18, r20
     c6e:	20 a3       	std	Z+32, r18	; 0x20
     c70:	ec 85       	ldd	r30, Y+12	; 0x0c
     c72:	f0 e0       	ldi	r31, 0x00	; 0
     c74:	40 a1       	ldd	r20, Z+32	; 0x20
     c76:	9c 01       	movw	r18, r24
     c78:	0e 84       	ldd	r0, Y+14	; 0x0e
     c7a:	02 c0       	rjmp	.+4      	; 0xc80 <_ZN13Character_LCD4InitE18Mode_Character_LCD+0x17a>
     c7c:	22 0f       	add	r18, r18
     c7e:	33 1f       	adc	r19, r19
     c80:	0a 94       	dec	r0
     c82:	e2 f7       	brpl	.-8      	; 0xc7c <_ZN13Character_LCD4InitE18Mode_Character_LCD+0x176>
     c84:	24 2b       	or	r18, r20
     c86:	20 a3       	std	Z+32, r18	; 0x20
     c88:	ef 85       	ldd	r30, Y+15	; 0x0f
     c8a:	f0 e0       	ldi	r31, 0x00	; 0
     c8c:	30 a1       	ldd	r19, Z+32	; 0x20
     c8e:	ac 01       	movw	r20, r24
     c90:	09 88       	ldd	r0, Y+17	; 0x11
     c92:	02 c0       	rjmp	.+4      	; 0xc98 <_ZN13Character_LCD4InitE18Mode_Character_LCD+0x192>
     c94:	44 0f       	add	r20, r20
     c96:	55 1f       	adc	r21, r21
     c98:	0a 94       	dec	r0
     c9a:	e2 f7       	brpl	.-8      	; 0xc94 <_ZN13Character_LCD4InitE18Mode_Character_LCD+0x18e>
     c9c:	24 2f       	mov	r18, r20
     c9e:	20 95       	com	r18
     ca0:	23 23       	and	r18, r19
     ca2:	20 a3       	std	Z+32, r18	; 0x20
     ca4:	ea 89       	ldd	r30, Y+18	; 0x12
     ca6:	f0 e0       	ldi	r31, 0x00	; 0
     ca8:	30 a1       	ldd	r19, Z+32	; 0x20
     caa:	ac 01       	movw	r20, r24
     cac:	0c 88       	ldd	r0, Y+20	; 0x14
     cae:	02 c0       	rjmp	.+4      	; 0xcb4 <_ZN13Character_LCD4InitE18Mode_Character_LCD+0x1ae>
     cb0:	44 0f       	add	r20, r20
     cb2:	55 1f       	adc	r21, r21
     cb4:	0a 94       	dec	r0
     cb6:	e2 f7       	brpl	.-8      	; 0xcb0 <_ZN13Character_LCD4InitE18Mode_Character_LCD+0x1aa>
     cb8:	24 2f       	mov	r18, r20
     cba:	20 95       	com	r18
     cbc:	23 23       	and	r18, r19
     cbe:	20 a3       	std	Z+32, r18	; 0x20
     cc0:	ee 81       	ldd	r30, Y+6	; 0x06
     cc2:	f0 e0       	ldi	r31, 0x00	; 0
     cc4:	40 a1       	ldd	r20, Z+32	; 0x20
     cc6:	9c 01       	movw	r18, r24
     cc8:	08 84       	ldd	r0, Y+8	; 0x08
     cca:	02 c0       	rjmp	.+4      	; 0xcd0 <_ZN13Character_LCD4InitE18Mode_Character_LCD+0x1ca>
     ccc:	22 0f       	add	r18, r18
     cce:	33 1f       	adc	r19, r19
     cd0:	0a 94       	dec	r0
     cd2:	e2 f7       	brpl	.-8      	; 0xccc <_ZN13Character_LCD4InitE18Mode_Character_LCD+0x1c6>
     cd4:	24 2b       	or	r18, r20
     cd6:	20 a3       	std	Z+32, r18	; 0x20
     cd8:	e8 81       	ld	r30, Y
     cda:	f0 e0       	ldi	r31, 0x00	; 0
     cdc:	30 a1       	ldd	r19, Z+32	; 0x20
     cde:	ac 01       	movw	r20, r24
     ce0:	0a 80       	ldd	r0, Y+2	; 0x02
     ce2:	02 c0       	rjmp	.+4      	; 0xce8 <_ZN13Character_LCD4InitE18Mode_Character_LCD+0x1e2>
     ce4:	44 0f       	add	r20, r20
     ce6:	55 1f       	adc	r21, r21
     ce8:	0a 94       	dec	r0
     cea:	e2 f7       	brpl	.-8      	; 0xce4 <_ZN13Character_LCD4InitE18Mode_Character_LCD+0x1de>
     cec:	24 2f       	mov	r18, r20
     cee:	20 95       	com	r18
     cf0:	23 23       	and	r18, r19
     cf2:	20 a3       	std	Z+32, r18	; 0x20
     cf4:	eb 81       	ldd	r30, Y+3	; 0x03
     cf6:	f0 e0       	ldi	r31, 0x00	; 0
     cf8:	30 a1       	ldd	r19, Z+32	; 0x20
     cfa:	ac 01       	movw	r20, r24
     cfc:	0d 80       	ldd	r0, Y+5	; 0x05
     cfe:	02 c0       	rjmp	.+4      	; 0xd04 <_ZN13Character_LCD4InitE18Mode_Character_LCD+0x1fe>
     d00:	44 0f       	add	r20, r20
     d02:	55 1f       	adc	r21, r21
     d04:	0a 94       	dec	r0
     d06:	e2 f7       	brpl	.-8      	; 0xd00 <_ZN13Character_LCD4InitE18Mode_Character_LCD+0x1fa>
     d08:	24 2f       	mov	r18, r20
     d0a:	20 95       	com	r18
     d0c:	23 23       	and	r18, r19
     d0e:	20 a3       	std	Z+32, r18	; 0x20
     d10:	ef ec       	ldi	r30, 0xCF	; 207
     d12:	f7 e0       	ldi	r31, 0x07	; 7
     d14:	31 97       	sbiw	r30, 0x01	; 1
     d16:	f1 f7       	brne	.-4      	; 0xd14 <_ZN13Character_LCD4InitE18Mode_Character_LCD+0x20e>
     d18:	00 c0       	rjmp	.+0      	; 0xd1a <_ZN13Character_LCD4InitE18Mode_Character_LCD+0x214>
     d1a:	00 00       	nop
     d1c:	ee 81       	ldd	r30, Y+6	; 0x06
     d1e:	f0 e0       	ldi	r31, 0x00	; 0
     d20:	30 a1       	ldd	r19, Z+32	; 0x20
     d22:	ac 01       	movw	r20, r24
     d24:	08 84       	ldd	r0, Y+8	; 0x08
     d26:	02 c0       	rjmp	.+4      	; 0xd2c <_ZN13Character_LCD4InitE18Mode_Character_LCD+0x226>
     d28:	44 0f       	add	r20, r20
     d2a:	55 1f       	adc	r21, r21
     d2c:	0a 94       	dec	r0
     d2e:	e2 f7       	brpl	.-8      	; 0xd28 <_ZN13Character_LCD4InitE18Mode_Character_LCD+0x222>
     d30:	24 2f       	mov	r18, r20
     d32:	20 95       	com	r18
     d34:	23 23       	and	r18, r19
     d36:	20 a3       	std	Z+32, r18	; 0x20
     d38:	ef ec       	ldi	r30, 0xCF	; 207
     d3a:	f7 e0       	ldi	r31, 0x07	; 7
     d3c:	31 97       	sbiw	r30, 0x01	; 1
     d3e:	f1 f7       	brne	.-4      	; 0xd3c <_ZN13Character_LCD4InitE18Mode_Character_LCD+0x236>
     d40:	00 c0       	rjmp	.+0      	; 0xd42 <_ZN13Character_LCD4InitE18Mode_Character_LCD+0x23c>
     d42:	00 00       	nop
     d44:	e9 85       	ldd	r30, Y+9	; 0x09
     d46:	f0 e0       	ldi	r31, 0x00	; 0
     d48:	40 a1       	ldd	r20, Z+32	; 0x20
     d4a:	9c 01       	movw	r18, r24
     d4c:	0b 84       	ldd	r0, Y+11	; 0x0b
     d4e:	02 c0       	rjmp	.+4      	; 0xd54 <_ZN13Character_LCD4InitE18Mode_Character_LCD+0x24e>
     d50:	22 0f       	add	r18, r18
     d52:	33 1f       	adc	r19, r19
     d54:	0a 94       	dec	r0
     d56:	e2 f7       	brpl	.-8      	; 0xd50 <_ZN13Character_LCD4InitE18Mode_Character_LCD+0x24a>
     d58:	24 2b       	or	r18, r20
     d5a:	20 a3       	std	Z+32, r18	; 0x20
     d5c:	ec 85       	ldd	r30, Y+12	; 0x0c
     d5e:	f0 e0       	ldi	r31, 0x00	; 0
     d60:	40 a1       	ldd	r20, Z+32	; 0x20
     d62:	9c 01       	movw	r18, r24
     d64:	0e 84       	ldd	r0, Y+14	; 0x0e
     d66:	02 c0       	rjmp	.+4      	; 0xd6c <_ZN13Character_LCD4InitE18Mode_Character_LCD+0x266>
     d68:	22 0f       	add	r18, r18
     d6a:	33 1f       	adc	r19, r19
     d6c:	0a 94       	dec	r0
     d6e:	e2 f7       	brpl	.-8      	; 0xd68 <_ZN13Character_LCD4InitE18Mode_Character_LCD+0x262>
     d70:	24 2b       	or	r18, r20
     d72:	20 a3       	std	Z+32, r18	; 0x20
     d74:	ef 85       	ldd	r30, Y+15	; 0x0f
     d76:	f0 e0       	ldi	r31, 0x00	; 0
     d78:	30 a1       	ldd	r19, Z+32	; 0x20
     d7a:	ac 01       	movw	r20, r24
     d7c:	09 88       	ldd	r0, Y+17	; 0x11
     d7e:	02 c0       	rjmp	.+4      	; 0xd84 <_ZN13Character_LCD4InitE18Mode_Character_LCD+0x27e>
     d80:	44 0f       	add	r20, r20
     d82:	55 1f       	adc	r21, r21
     d84:	0a 94       	dec	r0
     d86:	e2 f7       	brpl	.-8      	; 0xd80 <_ZN13Character_LCD4InitE18Mode_Character_LCD+0x27a>
     d88:	24 2f       	mov	r18, r20
     d8a:	20 95       	com	r18
     d8c:	23 23       	and	r18, r19
     d8e:	20 a3       	std	Z+32, r18	; 0x20
     d90:	ea 89       	ldd	r30, Y+18	; 0x12
     d92:	f0 e0       	ldi	r31, 0x00	; 0
     d94:	30 a1       	ldd	r19, Z+32	; 0x20
     d96:	ac 01       	movw	r20, r24
     d98:	0c 88       	ldd	r0, Y+20	; 0x14
     d9a:	02 c0       	rjmp	.+4      	; 0xda0 <_ZN13Character_LCD4InitE18Mode_Character_LCD+0x29a>
     d9c:	44 0f       	add	r20, r20
     d9e:	55 1f       	adc	r21, r21
     da0:	0a 94       	dec	r0
     da2:	e2 f7       	brpl	.-8      	; 0xd9c <_ZN13Character_LCD4InitE18Mode_Character_LCD+0x296>
     da4:	24 2f       	mov	r18, r20
     da6:	20 95       	com	r18
     da8:	23 23       	and	r18, r19
     daa:	20 a3       	std	Z+32, r18	; 0x20
     dac:	ee 81       	ldd	r30, Y+6	; 0x06
     dae:	f0 e0       	ldi	r31, 0x00	; 0
     db0:	40 a1       	ldd	r20, Z+32	; 0x20
     db2:	9c 01       	movw	r18, r24
     db4:	08 84       	ldd	r0, Y+8	; 0x08
     db6:	02 c0       	rjmp	.+4      	; 0xdbc <_ZN13Character_LCD4InitE18Mode_Character_LCD+0x2b6>
     db8:	22 0f       	add	r18, r18
     dba:	33 1f       	adc	r19, r19
     dbc:	0a 94       	dec	r0
     dbe:	e2 f7       	brpl	.-8      	; 0xdb8 <_ZN13Character_LCD4InitE18Mode_Character_LCD+0x2b2>
     dc0:	24 2b       	or	r18, r20
     dc2:	20 a3       	std	Z+32, r18	; 0x20
     dc4:	e8 81       	ld	r30, Y
     dc6:	f0 e0       	ldi	r31, 0x00	; 0
     dc8:	30 a1       	ldd	r19, Z+32	; 0x20
     dca:	ac 01       	movw	r20, r24
     dcc:	0a 80       	ldd	r0, Y+2	; 0x02
     dce:	02 c0       	rjmp	.+4      	; 0xdd4 <_ZN13Character_LCD4InitE18Mode_Character_LCD+0x2ce>
     dd0:	44 0f       	add	r20, r20
     dd2:	55 1f       	adc	r21, r21
     dd4:	0a 94       	dec	r0
     dd6:	e2 f7       	brpl	.-8      	; 0xdd0 <_ZN13Character_LCD4InitE18Mode_Character_LCD+0x2ca>
     dd8:	24 2f       	mov	r18, r20
     dda:	20 95       	com	r18
     ddc:	23 23       	and	r18, r19
     dde:	20 a3       	std	Z+32, r18	; 0x20
     de0:	eb 81       	ldd	r30, Y+3	; 0x03
     de2:	f0 e0       	ldi	r31, 0x00	; 0
     de4:	30 a1       	ldd	r19, Z+32	; 0x20
     de6:	ac 01       	movw	r20, r24
     de8:	0d 80       	ldd	r0, Y+5	; 0x05
     dea:	02 c0       	rjmp	.+4      	; 0xdf0 <_ZN13Character_LCD4InitE18Mode_Character_LCD+0x2ea>
     dec:	44 0f       	add	r20, r20
     dee:	55 1f       	adc	r21, r21
     df0:	0a 94       	dec	r0
     df2:	e2 f7       	brpl	.-8      	; 0xdec <_ZN13Character_LCD4InitE18Mode_Character_LCD+0x2e6>
     df4:	24 2f       	mov	r18, r20
     df6:	20 95       	com	r18
     df8:	23 23       	and	r18, r19
     dfa:	20 a3       	std	Z+32, r18	; 0x20
     dfc:	ef ec       	ldi	r30, 0xCF	; 207
     dfe:	f7 e0       	ldi	r31, 0x07	; 7
     e00:	31 97       	sbiw	r30, 0x01	; 1
     e02:	f1 f7       	brne	.-4      	; 0xe00 <_ZN13Character_LCD4InitE18Mode_Character_LCD+0x2fa>
     e04:	00 c0       	rjmp	.+0      	; 0xe06 <_ZN13Character_LCD4InitE18Mode_Character_LCD+0x300>
     e06:	00 00       	nop
     e08:	ee 81       	ldd	r30, Y+6	; 0x06
     e0a:	f0 e0       	ldi	r31, 0x00	; 0
     e0c:	30 a1       	ldd	r19, Z+32	; 0x20
     e0e:	ac 01       	movw	r20, r24
     e10:	08 84       	ldd	r0, Y+8	; 0x08
     e12:	02 c0       	rjmp	.+4      	; 0xe18 <_ZN13Character_LCD4InitE18Mode_Character_LCD+0x312>
     e14:	44 0f       	add	r20, r20
     e16:	55 1f       	adc	r21, r21
     e18:	0a 94       	dec	r0
     e1a:	e2 f7       	brpl	.-8      	; 0xe14 <_ZN13Character_LCD4InitE18Mode_Character_LCD+0x30e>
     e1c:	24 2f       	mov	r18, r20
     e1e:	20 95       	com	r18
     e20:	23 23       	and	r18, r19
     e22:	20 a3       	std	Z+32, r18	; 0x20
     e24:	ef ec       	ldi	r30, 0xCF	; 207
     e26:	f7 e0       	ldi	r31, 0x07	; 7
     e28:	31 97       	sbiw	r30, 0x01	; 1
     e2a:	f1 f7       	brne	.-4      	; 0xe28 <_ZN13Character_LCD4InitE18Mode_Character_LCD+0x322>
     e2c:	00 c0       	rjmp	.+0      	; 0xe2e <_ZN13Character_LCD4InitE18Mode_Character_LCD+0x328>
     e2e:	00 00       	nop
     e30:	e9 85       	ldd	r30, Y+9	; 0x09
     e32:	f0 e0       	ldi	r31, 0x00	; 0
     e34:	30 a1       	ldd	r19, Z+32	; 0x20
     e36:	ac 01       	movw	r20, r24
     e38:	0b 84       	ldd	r0, Y+11	; 0x0b
     e3a:	02 c0       	rjmp	.+4      	; 0xe40 <_ZN13Character_LCD4InitE18Mode_Character_LCD+0x33a>
     e3c:	44 0f       	add	r20, r20
     e3e:	55 1f       	adc	r21, r21
     e40:	0a 94       	dec	r0
     e42:	e2 f7       	brpl	.-8      	; 0xe3c <_ZN13Character_LCD4InitE18Mode_Character_LCD+0x336>
     e44:	24 2f       	mov	r18, r20
     e46:	20 95       	com	r18
     e48:	23 23       	and	r18, r19
     e4a:	20 a3       	std	Z+32, r18	; 0x20
     e4c:	ec 85       	ldd	r30, Y+12	; 0x0c
     e4e:	f0 e0       	ldi	r31, 0x00	; 0
     e50:	40 a1       	ldd	r20, Z+32	; 0x20
     e52:	9c 01       	movw	r18, r24
     e54:	0e 84       	ldd	r0, Y+14	; 0x0e
     e56:	02 c0       	rjmp	.+4      	; 0xe5c <_ZN13Character_LCD4InitE18Mode_Character_LCD+0x356>
     e58:	22 0f       	add	r18, r18
     e5a:	33 1f       	adc	r19, r19
     e5c:	0a 94       	dec	r0
     e5e:	e2 f7       	brpl	.-8      	; 0xe58 <_ZN13Character_LCD4InitE18Mode_Character_LCD+0x352>
     e60:	24 2b       	or	r18, r20
     e62:	20 a3       	std	Z+32, r18	; 0x20
     e64:	ef 85       	ldd	r30, Y+15	; 0x0f
     e66:	f0 e0       	ldi	r31, 0x00	; 0
     e68:	30 a1       	ldd	r19, Z+32	; 0x20
     e6a:	ac 01       	movw	r20, r24
     e6c:	09 88       	ldd	r0, Y+17	; 0x11
     e6e:	02 c0       	rjmp	.+4      	; 0xe74 <_ZN13Character_LCD4InitE18Mode_Character_LCD+0x36e>
     e70:	44 0f       	add	r20, r20
     e72:	55 1f       	adc	r21, r21
     e74:	0a 94       	dec	r0
     e76:	e2 f7       	brpl	.-8      	; 0xe70 <_ZN13Character_LCD4InitE18Mode_Character_LCD+0x36a>
     e78:	24 2f       	mov	r18, r20
     e7a:	20 95       	com	r18
     e7c:	23 23       	and	r18, r19
     e7e:	20 a3       	std	Z+32, r18	; 0x20
     e80:	ea 89       	ldd	r30, Y+18	; 0x12
     e82:	f0 e0       	ldi	r31, 0x00	; 0
     e84:	30 a1       	ldd	r19, Z+32	; 0x20
     e86:	ac 01       	movw	r20, r24
     e88:	0c 88       	ldd	r0, Y+20	; 0x14
     e8a:	02 c0       	rjmp	.+4      	; 0xe90 <_ZN13Character_LCD4InitE18Mode_Character_LCD+0x38a>
     e8c:	44 0f       	add	r20, r20
     e8e:	55 1f       	adc	r21, r21
     e90:	0a 94       	dec	r0
     e92:	e2 f7       	brpl	.-8      	; 0xe8c <_ZN13Character_LCD4InitE18Mode_Character_LCD+0x386>
     e94:	24 2f       	mov	r18, r20
     e96:	20 95       	com	r18
     e98:	23 23       	and	r18, r19
     e9a:	20 a3       	std	Z+32, r18	; 0x20
     e9c:	ee 81       	ldd	r30, Y+6	; 0x06
     e9e:	f0 e0       	ldi	r31, 0x00	; 0
     ea0:	40 a1       	ldd	r20, Z+32	; 0x20
     ea2:	9c 01       	movw	r18, r24
     ea4:	08 84       	ldd	r0, Y+8	; 0x08
     ea6:	02 c0       	rjmp	.+4      	; 0xeac <_ZN13Character_LCD4InitE18Mode_Character_LCD+0x3a6>
     ea8:	22 0f       	add	r18, r18
     eaa:	33 1f       	adc	r19, r19
     eac:	0a 94       	dec	r0
     eae:	e2 f7       	brpl	.-8      	; 0xea8 <_ZN13Character_LCD4InitE18Mode_Character_LCD+0x3a2>
     eb0:	24 2b       	or	r18, r20
     eb2:	20 a3       	std	Z+32, r18	; 0x20
     eb4:	e8 81       	ld	r30, Y
     eb6:	f0 e0       	ldi	r31, 0x00	; 0
     eb8:	30 a1       	ldd	r19, Z+32	; 0x20
     eba:	ac 01       	movw	r20, r24
     ebc:	0a 80       	ldd	r0, Y+2	; 0x02
     ebe:	02 c0       	rjmp	.+4      	; 0xec4 <_ZN13Character_LCD4InitE18Mode_Character_LCD+0x3be>
     ec0:	44 0f       	add	r20, r20
     ec2:	55 1f       	adc	r21, r21
     ec4:	0a 94       	dec	r0
     ec6:	e2 f7       	brpl	.-8      	; 0xec0 <_ZN13Character_LCD4InitE18Mode_Character_LCD+0x3ba>
     ec8:	24 2f       	mov	r18, r20
     eca:	20 95       	com	r18
     ecc:	23 23       	and	r18, r19
     ece:	20 a3       	std	Z+32, r18	; 0x20
     ed0:	eb 81       	ldd	r30, Y+3	; 0x03
     ed2:	f0 e0       	ldi	r31, 0x00	; 0
     ed4:	30 a1       	ldd	r19, Z+32	; 0x20
     ed6:	ac 01       	movw	r20, r24
     ed8:	0d 80       	ldd	r0, Y+5	; 0x05
     eda:	02 c0       	rjmp	.+4      	; 0xee0 <_ZN13Character_LCD4InitE18Mode_Character_LCD+0x3da>
     edc:	44 0f       	add	r20, r20
     ede:	55 1f       	adc	r21, r21
     ee0:	0a 94       	dec	r0
     ee2:	e2 f7       	brpl	.-8      	; 0xedc <_ZN13Character_LCD4InitE18Mode_Character_LCD+0x3d6>
     ee4:	24 2f       	mov	r18, r20
     ee6:	20 95       	com	r18
     ee8:	23 23       	and	r18, r19
     eea:	20 a3       	std	Z+32, r18	; 0x20
     eec:	ef ec       	ldi	r30, 0xCF	; 207
     eee:	f7 e0       	ldi	r31, 0x07	; 7
     ef0:	31 97       	sbiw	r30, 0x01	; 1
     ef2:	f1 f7       	brne	.-4      	; 0xef0 <_ZN13Character_LCD4InitE18Mode_Character_LCD+0x3ea>
     ef4:	00 c0       	rjmp	.+0      	; 0xef6 <_ZN13Character_LCD4InitE18Mode_Character_LCD+0x3f0>
     ef6:	00 00       	nop
     ef8:	ee 81       	ldd	r30, Y+6	; 0x06
     efa:	f0 e0       	ldi	r31, 0x00	; 0
     efc:	20 a1       	ldd	r18, Z+32	; 0x20
     efe:	08 84       	ldd	r0, Y+8	; 0x08
     f00:	02 c0       	rjmp	.+4      	; 0xf06 <_ZN13Character_LCD4InitE18Mode_Character_LCD+0x400>
     f02:	88 0f       	add	r24, r24
     f04:	99 1f       	adc	r25, r25
     f06:	0a 94       	dec	r0
     f08:	e2 f7       	brpl	.-8      	; 0xf02 <_ZN13Character_LCD4InitE18Mode_Character_LCD+0x3fc>
     f0a:	80 95       	com	r24
     f0c:	82 23       	and	r24, r18
     f0e:	80 a3       	std	Z+32, r24	; 0x20
     f10:	8f ec       	ldi	r24, 0xCF	; 207
     f12:	97 e0       	ldi	r25, 0x07	; 7
     f14:	01 97       	sbiw	r24, 0x01	; 1
     f16:	f1 f7       	brne	.-4      	; 0xf14 <_ZN13Character_LCD4InitE18Mode_Character_LCD+0x40e>
     f18:	00 c0       	rjmp	.+0      	; 0xf1a <_ZN13Character_LCD4InitE18Mode_Character_LCD+0x414>
     f1a:	00 00       	nop
     f1c:	68 e2       	ldi	r22, 0x28	; 40
     f1e:	ce 01       	movw	r24, r28
     f20:	0e 94 a6 02 	call	0x54c	; 0x54c <_ZN13Character_LCD11SendCommandEh>
     f24:	6c e0       	ldi	r22, 0x0C	; 12
     f26:	ce 01       	movw	r24, r28
     f28:	0e 94 a6 02 	call	0x54c	; 0x54c <_ZN13Character_LCD11SendCommandEh>
     f2c:	12 30       	cpi	r17, 0x02	; 2
     f2e:	99 f4       	brne	.+38     	; 0xf56 <_ZN13Character_LCD4InitE18Mode_Character_LCD+0x450>
     f30:	0f 2e       	mov	r0, r31
     f32:	f4 e7       	ldi	r31, 0x74	; 116
     f34:	ef 2e       	mov	r14, r31
     f36:	f0 e0       	ldi	r31, 0x00	; 0
     f38:	ff 2e       	mov	r15, r31
     f3a:	f0 2d       	mov	r31, r0
     f3c:	10 e0       	ldi	r17, 0x00	; 0
     f3e:	41 2f       	mov	r20, r17
     f40:	b7 01       	movw	r22, r14
     f42:	ce 01       	movw	r24, r28
     f44:	0e 94 28 05 	call	0xa50	; 0xa50 <_ZN13Character_LCD10DefinecharEPKhh>
     f48:	1f 5f       	subi	r17, 0xFF	; 255
     f4a:	98 e0       	ldi	r25, 0x08	; 8
     f4c:	e9 0e       	add	r14, r25
     f4e:	f1 1c       	adc	r15, r1
     f50:	18 30       	cpi	r17, 0x08	; 8
     f52:	a9 f7       	brne	.-22     	; 0xf3e <_ZN13Character_LCD4InitE18Mode_Character_LCD+0x438>
     f54:	14 c0       	rjmp	.+40     	; 0xf7e <_ZN13Character_LCD4InitE18Mode_Character_LCD+0x478>
     f56:	11 30       	cpi	r17, 0x01	; 1
     f58:	91 f4       	brne	.+36     	; 0xf7e <_ZN13Character_LCD4InitE18Mode_Character_LCD+0x478>
     f5a:	0f 2e       	mov	r0, r31
     f5c:	f4 eb       	ldi	r31, 0xB4	; 180
     f5e:	ef 2e       	mov	r14, r31
     f60:	f0 e0       	ldi	r31, 0x00	; 0
     f62:	ff 2e       	mov	r15, r31
     f64:	f0 2d       	mov	r31, r0
     f66:	10 e0       	ldi	r17, 0x00	; 0
     f68:	41 2f       	mov	r20, r17
     f6a:	b7 01       	movw	r22, r14
     f6c:	ce 01       	movw	r24, r28
     f6e:	0e 94 28 05 	call	0xa50	; 0xa50 <_ZN13Character_LCD10DefinecharEPKhh>
     f72:	1f 5f       	subi	r17, 0xFF	; 255
     f74:	e8 e0       	ldi	r30, 0x08	; 8
     f76:	ee 0e       	add	r14, r30
     f78:	f1 1c       	adc	r15, r1
     f7a:	18 30       	cpi	r17, 0x08	; 8
     f7c:	a9 f7       	brne	.-22     	; 0xf68 <_ZN13Character_LCD4InitE18Mode_Character_LCD+0x462>
     f7e:	ce 01       	movw	r24, r28
     f80:	0e 94 20 04 	call	0x840	; 0x840 <_ZN13Character_LCD3ClrEv>
     f84:	20 e0       	ldi	r18, 0x00	; 0
     f86:	40 e0       	ldi	r20, 0x00	; 0
     f88:	63 e6       	ldi	r22, 0x63	; 99
     f8a:	70 e0       	ldi	r23, 0x00	; 0
     f8c:	ce 01       	movw	r24, r28
     f8e:	0e 94 59 05 	call	0xab2	; 0xab2 <_ZN13Character_LCD10CopyStringEPKhhh>
     f92:	ff ef       	ldi	r31, 0xFF	; 255
     f94:	29 e6       	ldi	r18, 0x69	; 105
     f96:	88 e1       	ldi	r24, 0x18	; 24
     f98:	f1 50       	subi	r31, 0x01	; 1
     f9a:	20 40       	sbci	r18, 0x00	; 0
     f9c:	80 40       	sbci	r24, 0x00	; 0
     f9e:	e1 f7       	brne	.-8      	; 0xf98 <_ZN13Character_LCD4InitE18Mode_Character_LCD+0x492>
     fa0:	00 c0       	rjmp	.+0      	; 0xfa2 <_ZN13Character_LCD4InitE18Mode_Character_LCD+0x49c>
     fa2:	00 00       	nop
     fa4:	df 91       	pop	r29
     fa6:	cf 91       	pop	r28
     fa8:	1f 91       	pop	r17
     faa:	ff 90       	pop	r15
     fac:	ef 90       	pop	r14
     fae:	08 95       	ret

00000fb0 <_ZN13Character_LCD11ProgressBarEhhhhh>:
     fb0:	9f 92       	push	r9
     fb2:	af 92       	push	r10
     fb4:	bf 92       	push	r11
     fb6:	cf 92       	push	r12
     fb8:	df 92       	push	r13
     fba:	ef 92       	push	r14
     fbc:	ff 92       	push	r15
     fbe:	0f 93       	push	r16
     fc0:	1f 93       	push	r17
     fc2:	cf 93       	push	r28
     fc4:	df 93       	push	r29
     fc6:	6c 01       	movw	r12, r24
     fc8:	d6 2f       	mov	r29, r22
     fca:	c4 2f       	mov	r28, r20
     fcc:	b2 2e       	mov	r11, r18
     fce:	60 2f       	mov	r22, r16
     fd0:	4e 2d       	mov	r20, r14
     fd2:	0e 94 2a 04 	call	0x854	; 0x854 <_ZN13Character_LCD6GotoXYEhh>
     fd6:	8b 2d       	mov	r24, r11
     fd8:	90 e0       	ldi	r25, 0x00	; 0
     fda:	9c 01       	movw	r18, r24
     fdc:	22 0f       	add	r18, r18
     fde:	33 1f       	adc	r19, r19
     fe0:	82 0f       	add	r24, r18
     fe2:	93 1f       	adc	r25, r19
     fe4:	9c 01       	movw	r18, r24
     fe6:	22 0f       	add	r18, r18
     fe8:	33 1f       	adc	r19, r19
     fea:	d2 9f       	mul	r29, r18
     fec:	c0 01       	movw	r24, r0
     fee:	d3 9f       	mul	r29, r19
     ff0:	90 0d       	add	r25, r0
     ff2:	11 24       	eor	r1, r1
     ff4:	6c 2f       	mov	r22, r28
     ff6:	70 e0       	ldi	r23, 0x00	; 0
     ff8:	0e 94 3c 0b 	call	0x1678	; 0x1678 <__divmodhi4>
     ffc:	46 2f       	mov	r20, r22
     ffe:	e6 2e       	mov	r14, r22
    1000:	f7 2e       	mov	r15, r23
    1002:	bb 20       	and	r11, r11
    1004:	79 f1       	breq	.+94     	; 0x1064 <_ZN13Character_LCD11ProgressBarEhhhhh+0xb4>
    1006:	26 2f       	mov	r18, r22
    1008:	37 2f       	mov	r19, r23
    100a:	ab ea       	ldi	r26, 0xAB	; 171
    100c:	ba ea       	ldi	r27, 0xAA	; 170
    100e:	0e 94 78 0b 	call	0x16f0	; 0x16f0 <__umulhisi3>
    1012:	96 95       	lsr	r25
    1014:	87 95       	ror	r24
    1016:	96 95       	lsr	r25
    1018:	87 95       	ror	r24
    101a:	9c 01       	movw	r18, r24
    101c:	22 0f       	add	r18, r18
    101e:	33 1f       	adc	r19, r19
    1020:	82 0f       	add	r24, r18
    1022:	93 1f       	adc	r25, r19
    1024:	88 0f       	add	r24, r24
    1026:	99 1f       	adc	r25, r25
    1028:	c0 e0       	ldi	r28, 0x00	; 0
    102a:	d0 e0       	ldi	r29, 0x00	; 0
    102c:	10 e0       	ldi	r17, 0x00	; 0
    102e:	0f 2e       	mov	r0, r31
    1030:	f5 e0       	ldi	r31, 0x05	; 5
    1032:	af 2e       	mov	r10, r31
    1034:	f0 2d       	mov	r31, r0
    1036:	91 2c       	mov	r9, r1
    1038:	04 2f       	mov	r16, r20
    103a:	08 1b       	sub	r16, r24
    103c:	ce 01       	movw	r24, r28
    103e:	05 96       	adiw	r24, 0x05	; 5
    1040:	e8 16       	cp	r14, r24
    1042:	f9 06       	cpc	r15, r25
    1044:	28 f4       	brcc	.+10     	; 0x1050 <_ZN13Character_LCD11ProgressBarEhhhhh+0xa0>
    1046:	ec 16       	cp	r14, r28
    1048:	fd 06       	cpc	r15, r29
    104a:	20 f0       	brcs	.+8      	; 0x1054 <_ZN13Character_LCD11ProgressBarEhhhhh+0xa4>
    104c:	60 2f       	mov	r22, r16
    104e:	03 c0       	rjmp	.+6      	; 0x1056 <_ZN13Character_LCD11ProgressBarEhhhhh+0xa6>
    1050:	6a 2d       	mov	r22, r10
    1052:	01 c0       	rjmp	.+2      	; 0x1056 <_ZN13Character_LCD11ProgressBarEhhhhh+0xa6>
    1054:	69 2d       	mov	r22, r9
    1056:	c6 01       	movw	r24, r12
    1058:	0e 94 c4 00 	call	0x188	; 0x188 <_ZN13Character_LCD8SendCharEh>
    105c:	1f 5f       	subi	r17, 0xFF	; 255
    105e:	26 96       	adiw	r28, 0x06	; 6
    1060:	b1 12       	cpse	r11, r17
    1062:	ec cf       	rjmp	.-40     	; 0x103c <_ZN13Character_LCD11ProgressBarEhhhhh+0x8c>
    1064:	8f ec       	ldi	r24, 0xCF	; 207
    1066:	97 e0       	ldi	r25, 0x07	; 7
    1068:	01 97       	sbiw	r24, 0x01	; 1
    106a:	f1 f7       	brne	.-4      	; 0x1068 <_ZN13Character_LCD11ProgressBarEhhhhh+0xb8>
    106c:	00 c0       	rjmp	.+0      	; 0x106e <_ZN13Character_LCD11ProgressBarEhhhhh+0xbe>
    106e:	00 00       	nop
    1070:	df 91       	pop	r29
    1072:	cf 91       	pop	r28
    1074:	1f 91       	pop	r17
    1076:	0f 91       	pop	r16
    1078:	ff 90       	pop	r15
    107a:	ef 90       	pop	r14
    107c:	df 90       	pop	r13
    107e:	cf 90       	pop	r12
    1080:	bf 90       	pop	r11
    1082:	af 90       	pop	r10
    1084:	9f 90       	pop	r9
    1086:	08 95       	ret

00001088 <_ZN13Character_LCD9BigNumberEhhh>:
    1088:	ff 92       	push	r15
    108a:	0f 93       	push	r16
    108c:	1f 93       	push	r17
    108e:	cf 93       	push	r28
    1090:	df 93       	push	r29
    1092:	6a 30       	cpi	r22, 0x0A	; 10
    1094:	08 f0       	brcs	.+2      	; 0x1098 <_ZN13Character_LCD9BigNumberEhhh+0x10>
    1096:	51 c1       	rjmp	.+674    	; 0x133a <_ZN13Character_LCD9BigNumberEhhh+0x2b2>
    1098:	d2 2f       	mov	r29, r18
    109a:	f4 2e       	mov	r15, r20
    109c:	c6 2f       	mov	r28, r22
    109e:	8c 01       	movw	r16, r24
    10a0:	42 2f       	mov	r20, r18
    10a2:	6f 2d       	mov	r22, r15
    10a4:	0e 94 2a 04 	call	0x854	; 0x854 <_ZN13Character_LCD6GotoXYEhh>
    10a8:	c1 11       	cpse	r28, r1
    10aa:	1f c0       	rjmp	.+62     	; 0x10ea <_ZN13Character_LCD9BigNumberEhhh+0x62>
    10ac:	6f ef       	ldi	r22, 0xFF	; 255
    10ae:	c8 01       	movw	r24, r16
    10b0:	0e 94 c4 00 	call	0x188	; 0x188 <_ZN13Character_LCD8SendCharEh>
    10b4:	60 e0       	ldi	r22, 0x00	; 0
    10b6:	c8 01       	movw	r24, r16
    10b8:	0e 94 c4 00 	call	0x188	; 0x188 <_ZN13Character_LCD8SendCharEh>
    10bc:	6f ef       	ldi	r22, 0xFF	; 255
    10be:	c8 01       	movw	r24, r16
    10c0:	0e 94 c4 00 	call	0x188	; 0x188 <_ZN13Character_LCD8SendCharEh>
    10c4:	41 e0       	ldi	r20, 0x01	; 1
    10c6:	4d 0f       	add	r20, r29
    10c8:	6f 2d       	mov	r22, r15
    10ca:	c8 01       	movw	r24, r16
    10cc:	0e 94 2a 04 	call	0x854	; 0x854 <_ZN13Character_LCD6GotoXYEhh>
    10d0:	6f ef       	ldi	r22, 0xFF	; 255
    10d2:	c8 01       	movw	r24, r16
    10d4:	0e 94 c4 00 	call	0x188	; 0x188 <_ZN13Character_LCD8SendCharEh>
    10d8:	61 e0       	ldi	r22, 0x01	; 1
    10da:	c8 01       	movw	r24, r16
    10dc:	0e 94 c4 00 	call	0x188	; 0x188 <_ZN13Character_LCD8SendCharEh>
    10e0:	6f ef       	ldi	r22, 0xFF	; 255
    10e2:	c8 01       	movw	r24, r16
    10e4:	0e 94 c4 00 	call	0x188	; 0x188 <_ZN13Character_LCD8SendCharEh>
    10e8:	28 c1       	rjmp	.+592    	; 0x133a <_ZN13Character_LCD9BigNumberEhhh+0x2b2>
    10ea:	c1 30       	cpi	r28, 0x01	; 1
    10ec:	f9 f4       	brne	.+62     	; 0x112c <_ZN13Character_LCD9BigNumberEhhh+0xa4>
    10ee:	60 e0       	ldi	r22, 0x00	; 0
    10f0:	c8 01       	movw	r24, r16
    10f2:	0e 94 c4 00 	call	0x188	; 0x188 <_ZN13Character_LCD8SendCharEh>
    10f6:	6f ef       	ldi	r22, 0xFF	; 255
    10f8:	c8 01       	movw	r24, r16
    10fa:	0e 94 c4 00 	call	0x188	; 0x188 <_ZN13Character_LCD8SendCharEh>
    10fe:	60 e2       	ldi	r22, 0x20	; 32
    1100:	c8 01       	movw	r24, r16
    1102:	0e 94 c4 00 	call	0x188	; 0x188 <_ZN13Character_LCD8SendCharEh>
    1106:	41 e0       	ldi	r20, 0x01	; 1
    1108:	4d 0f       	add	r20, r29
    110a:	6f 2d       	mov	r22, r15
    110c:	c8 01       	movw	r24, r16
    110e:	0e 94 2a 04 	call	0x854	; 0x854 <_ZN13Character_LCD6GotoXYEhh>
    1112:	61 e0       	ldi	r22, 0x01	; 1
    1114:	c8 01       	movw	r24, r16
    1116:	0e 94 c4 00 	call	0x188	; 0x188 <_ZN13Character_LCD8SendCharEh>
    111a:	6f ef       	ldi	r22, 0xFF	; 255
    111c:	c8 01       	movw	r24, r16
    111e:	0e 94 c4 00 	call	0x188	; 0x188 <_ZN13Character_LCD8SendCharEh>
    1122:	61 e0       	ldi	r22, 0x01	; 1
    1124:	c8 01       	movw	r24, r16
    1126:	0e 94 c4 00 	call	0x188	; 0x188 <_ZN13Character_LCD8SendCharEh>
    112a:	07 c1       	rjmp	.+526    	; 0x133a <_ZN13Character_LCD9BigNumberEhhh+0x2b2>
    112c:	c2 30       	cpi	r28, 0x02	; 2
    112e:	f9 f4       	brne	.+62     	; 0x116e <_ZN13Character_LCD9BigNumberEhhh+0xe6>
    1130:	60 e0       	ldi	r22, 0x00	; 0
    1132:	c8 01       	movw	r24, r16
    1134:	0e 94 c4 00 	call	0x188	; 0x188 <_ZN13Character_LCD8SendCharEh>
    1138:	62 e0       	ldi	r22, 0x02	; 2
    113a:	c8 01       	movw	r24, r16
    113c:	0e 94 c4 00 	call	0x188	; 0x188 <_ZN13Character_LCD8SendCharEh>
    1140:	6f ef       	ldi	r22, 0xFF	; 255
    1142:	c8 01       	movw	r24, r16
    1144:	0e 94 c4 00 	call	0x188	; 0x188 <_ZN13Character_LCD8SendCharEh>
    1148:	41 e0       	ldi	r20, 0x01	; 1
    114a:	4d 0f       	add	r20, r29
    114c:	6f 2d       	mov	r22, r15
    114e:	c8 01       	movw	r24, r16
    1150:	0e 94 2a 04 	call	0x854	; 0x854 <_ZN13Character_LCD6GotoXYEhh>
    1154:	6f ef       	ldi	r22, 0xFF	; 255
    1156:	c8 01       	movw	r24, r16
    1158:	0e 94 c4 00 	call	0x188	; 0x188 <_ZN13Character_LCD8SendCharEh>
    115c:	61 e0       	ldi	r22, 0x01	; 1
    115e:	c8 01       	movw	r24, r16
    1160:	0e 94 c4 00 	call	0x188	; 0x188 <_ZN13Character_LCD8SendCharEh>
    1164:	61 e0       	ldi	r22, 0x01	; 1
    1166:	c8 01       	movw	r24, r16
    1168:	0e 94 c4 00 	call	0x188	; 0x188 <_ZN13Character_LCD8SendCharEh>
    116c:	e6 c0       	rjmp	.+460    	; 0x133a <_ZN13Character_LCD9BigNumberEhhh+0x2b2>
    116e:	c3 30       	cpi	r28, 0x03	; 3
    1170:	f9 f4       	brne	.+62     	; 0x11b0 <_ZN13Character_LCD9BigNumberEhhh+0x128>
    1172:	60 e0       	ldi	r22, 0x00	; 0
    1174:	c8 01       	movw	r24, r16
    1176:	0e 94 c4 00 	call	0x188	; 0x188 <_ZN13Character_LCD8SendCharEh>
    117a:	62 e0       	ldi	r22, 0x02	; 2
    117c:	c8 01       	movw	r24, r16
    117e:	0e 94 c4 00 	call	0x188	; 0x188 <_ZN13Character_LCD8SendCharEh>
    1182:	6f ef       	ldi	r22, 0xFF	; 255
    1184:	c8 01       	movw	r24, r16
    1186:	0e 94 c4 00 	call	0x188	; 0x188 <_ZN13Character_LCD8SendCharEh>
    118a:	41 e0       	ldi	r20, 0x01	; 1
    118c:	4d 0f       	add	r20, r29
    118e:	6f 2d       	mov	r22, r15
    1190:	c8 01       	movw	r24, r16
    1192:	0e 94 2a 04 	call	0x854	; 0x854 <_ZN13Character_LCD6GotoXYEhh>
    1196:	61 e0       	ldi	r22, 0x01	; 1
    1198:	c8 01       	movw	r24, r16
    119a:	0e 94 c4 00 	call	0x188	; 0x188 <_ZN13Character_LCD8SendCharEh>
    119e:	61 e0       	ldi	r22, 0x01	; 1
    11a0:	c8 01       	movw	r24, r16
    11a2:	0e 94 c4 00 	call	0x188	; 0x188 <_ZN13Character_LCD8SendCharEh>
    11a6:	6f ef       	ldi	r22, 0xFF	; 255
    11a8:	c8 01       	movw	r24, r16
    11aa:	0e 94 c4 00 	call	0x188	; 0x188 <_ZN13Character_LCD8SendCharEh>
    11ae:	c5 c0       	rjmp	.+394    	; 0x133a <_ZN13Character_LCD9BigNumberEhhh+0x2b2>
    11b0:	c4 30       	cpi	r28, 0x04	; 4
    11b2:	f9 f4       	brne	.+62     	; 0x11f2 <_ZN13Character_LCD9BigNumberEhhh+0x16a>
    11b4:	6f ef       	ldi	r22, 0xFF	; 255
    11b6:	c8 01       	movw	r24, r16
    11b8:	0e 94 c4 00 	call	0x188	; 0x188 <_ZN13Character_LCD8SendCharEh>
    11bc:	61 e0       	ldi	r22, 0x01	; 1
    11be:	c8 01       	movw	r24, r16
    11c0:	0e 94 c4 00 	call	0x188	; 0x188 <_ZN13Character_LCD8SendCharEh>
    11c4:	6f ef       	ldi	r22, 0xFF	; 255
    11c6:	c8 01       	movw	r24, r16
    11c8:	0e 94 c4 00 	call	0x188	; 0x188 <_ZN13Character_LCD8SendCharEh>
    11cc:	41 e0       	ldi	r20, 0x01	; 1
    11ce:	4d 0f       	add	r20, r29
    11d0:	6f 2d       	mov	r22, r15
    11d2:	c8 01       	movw	r24, r16
    11d4:	0e 94 2a 04 	call	0x854	; 0x854 <_ZN13Character_LCD6GotoXYEhh>
    11d8:	60 e2       	ldi	r22, 0x20	; 32
    11da:	c8 01       	movw	r24, r16
    11dc:	0e 94 c4 00 	call	0x188	; 0x188 <_ZN13Character_LCD8SendCharEh>
    11e0:	60 e2       	ldi	r22, 0x20	; 32
    11e2:	c8 01       	movw	r24, r16
    11e4:	0e 94 c4 00 	call	0x188	; 0x188 <_ZN13Character_LCD8SendCharEh>
    11e8:	6f ef       	ldi	r22, 0xFF	; 255
    11ea:	c8 01       	movw	r24, r16
    11ec:	0e 94 c4 00 	call	0x188	; 0x188 <_ZN13Character_LCD8SendCharEh>
    11f0:	a4 c0       	rjmp	.+328    	; 0x133a <_ZN13Character_LCD9BigNumberEhhh+0x2b2>
    11f2:	c5 30       	cpi	r28, 0x05	; 5
    11f4:	f9 f4       	brne	.+62     	; 0x1234 <_ZN13Character_LCD9BigNumberEhhh+0x1ac>
    11f6:	6f ef       	ldi	r22, 0xFF	; 255
    11f8:	c8 01       	movw	r24, r16
    11fa:	0e 94 c4 00 	call	0x188	; 0x188 <_ZN13Character_LCD8SendCharEh>
    11fe:	62 e0       	ldi	r22, 0x02	; 2
    1200:	c8 01       	movw	r24, r16
    1202:	0e 94 c4 00 	call	0x188	; 0x188 <_ZN13Character_LCD8SendCharEh>
    1206:	60 e0       	ldi	r22, 0x00	; 0
    1208:	c8 01       	movw	r24, r16
    120a:	0e 94 c4 00 	call	0x188	; 0x188 <_ZN13Character_LCD8SendCharEh>
    120e:	41 e0       	ldi	r20, 0x01	; 1
    1210:	4d 0f       	add	r20, r29
    1212:	6f 2d       	mov	r22, r15
    1214:	c8 01       	movw	r24, r16
    1216:	0e 94 2a 04 	call	0x854	; 0x854 <_ZN13Character_LCD6GotoXYEhh>
    121a:	61 e0       	ldi	r22, 0x01	; 1
    121c:	c8 01       	movw	r24, r16
    121e:	0e 94 c4 00 	call	0x188	; 0x188 <_ZN13Character_LCD8SendCharEh>
    1222:	61 e0       	ldi	r22, 0x01	; 1
    1224:	c8 01       	movw	r24, r16
    1226:	0e 94 c4 00 	call	0x188	; 0x188 <_ZN13Character_LCD8SendCharEh>
    122a:	6f ef       	ldi	r22, 0xFF	; 255
    122c:	c8 01       	movw	r24, r16
    122e:	0e 94 c4 00 	call	0x188	; 0x188 <_ZN13Character_LCD8SendCharEh>
    1232:	83 c0       	rjmp	.+262    	; 0x133a <_ZN13Character_LCD9BigNumberEhhh+0x2b2>
    1234:	c6 30       	cpi	r28, 0x06	; 6
    1236:	f9 f4       	brne	.+62     	; 0x1276 <_ZN13Character_LCD9BigNumberEhhh+0x1ee>
    1238:	6f ef       	ldi	r22, 0xFF	; 255
    123a:	c8 01       	movw	r24, r16
    123c:	0e 94 c4 00 	call	0x188	; 0x188 <_ZN13Character_LCD8SendCharEh>
    1240:	62 e0       	ldi	r22, 0x02	; 2
    1242:	c8 01       	movw	r24, r16
    1244:	0e 94 c4 00 	call	0x188	; 0x188 <_ZN13Character_LCD8SendCharEh>
    1248:	60 e0       	ldi	r22, 0x00	; 0
    124a:	c8 01       	movw	r24, r16
    124c:	0e 94 c4 00 	call	0x188	; 0x188 <_ZN13Character_LCD8SendCharEh>
    1250:	41 e0       	ldi	r20, 0x01	; 1
    1252:	4d 0f       	add	r20, r29
    1254:	6f 2d       	mov	r22, r15
    1256:	c8 01       	movw	r24, r16
    1258:	0e 94 2a 04 	call	0x854	; 0x854 <_ZN13Character_LCD6GotoXYEhh>
    125c:	6f ef       	ldi	r22, 0xFF	; 255
    125e:	c8 01       	movw	r24, r16
    1260:	0e 94 c4 00 	call	0x188	; 0x188 <_ZN13Character_LCD8SendCharEh>
    1264:	61 e0       	ldi	r22, 0x01	; 1
    1266:	c8 01       	movw	r24, r16
    1268:	0e 94 c4 00 	call	0x188	; 0x188 <_ZN13Character_LCD8SendCharEh>
    126c:	6f ef       	ldi	r22, 0xFF	; 255
    126e:	c8 01       	movw	r24, r16
    1270:	0e 94 c4 00 	call	0x188	; 0x188 <_ZN13Character_LCD8SendCharEh>
    1274:	62 c0       	rjmp	.+196    	; 0x133a <_ZN13Character_LCD9BigNumberEhhh+0x2b2>
    1276:	c7 30       	cpi	r28, 0x07	; 7
    1278:	f9 f4       	brne	.+62     	; 0x12b8 <_ZN13Character_LCD9BigNumberEhhh+0x230>
    127a:	60 e0       	ldi	r22, 0x00	; 0
    127c:	c8 01       	movw	r24, r16
    127e:	0e 94 c4 00 	call	0x188	; 0x188 <_ZN13Character_LCD8SendCharEh>
    1282:	60 e0       	ldi	r22, 0x00	; 0
    1284:	c8 01       	movw	r24, r16
    1286:	0e 94 c4 00 	call	0x188	; 0x188 <_ZN13Character_LCD8SendCharEh>
    128a:	6f ef       	ldi	r22, 0xFF	; 255
    128c:	c8 01       	movw	r24, r16
    128e:	0e 94 c4 00 	call	0x188	; 0x188 <_ZN13Character_LCD8SendCharEh>
    1292:	41 e0       	ldi	r20, 0x01	; 1
    1294:	4d 0f       	add	r20, r29
    1296:	6f 2d       	mov	r22, r15
    1298:	c8 01       	movw	r24, r16
    129a:	0e 94 2a 04 	call	0x854	; 0x854 <_ZN13Character_LCD6GotoXYEhh>
    129e:	60 e2       	ldi	r22, 0x20	; 32
    12a0:	c8 01       	movw	r24, r16
    12a2:	0e 94 c4 00 	call	0x188	; 0x188 <_ZN13Character_LCD8SendCharEh>
    12a6:	60 e2       	ldi	r22, 0x20	; 32
    12a8:	c8 01       	movw	r24, r16
    12aa:	0e 94 c4 00 	call	0x188	; 0x188 <_ZN13Character_LCD8SendCharEh>
    12ae:	6f ef       	ldi	r22, 0xFF	; 255
    12b0:	c8 01       	movw	r24, r16
    12b2:	0e 94 c4 00 	call	0x188	; 0x188 <_ZN13Character_LCD8SendCharEh>
    12b6:	41 c0       	rjmp	.+130    	; 0x133a <_ZN13Character_LCD9BigNumberEhhh+0x2b2>
    12b8:	c8 30       	cpi	r28, 0x08	; 8
    12ba:	f9 f4       	brne	.+62     	; 0x12fa <_ZN13Character_LCD9BigNumberEhhh+0x272>
    12bc:	6f ef       	ldi	r22, 0xFF	; 255
    12be:	c8 01       	movw	r24, r16
    12c0:	0e 94 c4 00 	call	0x188	; 0x188 <_ZN13Character_LCD8SendCharEh>
    12c4:	62 e0       	ldi	r22, 0x02	; 2
    12c6:	c8 01       	movw	r24, r16
    12c8:	0e 94 c4 00 	call	0x188	; 0x188 <_ZN13Character_LCD8SendCharEh>
    12cc:	6f ef       	ldi	r22, 0xFF	; 255
    12ce:	c8 01       	movw	r24, r16
    12d0:	0e 94 c4 00 	call	0x188	; 0x188 <_ZN13Character_LCD8SendCharEh>
    12d4:	41 e0       	ldi	r20, 0x01	; 1
    12d6:	4d 0f       	add	r20, r29
    12d8:	6f 2d       	mov	r22, r15
    12da:	c8 01       	movw	r24, r16
    12dc:	0e 94 2a 04 	call	0x854	; 0x854 <_ZN13Character_LCD6GotoXYEhh>
    12e0:	6f ef       	ldi	r22, 0xFF	; 255
    12e2:	c8 01       	movw	r24, r16
    12e4:	0e 94 c4 00 	call	0x188	; 0x188 <_ZN13Character_LCD8SendCharEh>
    12e8:	61 e0       	ldi	r22, 0x01	; 1
    12ea:	c8 01       	movw	r24, r16
    12ec:	0e 94 c4 00 	call	0x188	; 0x188 <_ZN13Character_LCD8SendCharEh>
    12f0:	6f ef       	ldi	r22, 0xFF	; 255
    12f2:	c8 01       	movw	r24, r16
    12f4:	0e 94 c4 00 	call	0x188	; 0x188 <_ZN13Character_LCD8SendCharEh>
    12f8:	20 c0       	rjmp	.+64     	; 0x133a <_ZN13Character_LCD9BigNumberEhhh+0x2b2>
    12fa:	c9 30       	cpi	r28, 0x09	; 9
    12fc:	f1 f4       	brne	.+60     	; 0x133a <_ZN13Character_LCD9BigNumberEhhh+0x2b2>
    12fe:	6f ef       	ldi	r22, 0xFF	; 255
    1300:	c8 01       	movw	r24, r16
    1302:	0e 94 c4 00 	call	0x188	; 0x188 <_ZN13Character_LCD8SendCharEh>
    1306:	62 e0       	ldi	r22, 0x02	; 2
    1308:	c8 01       	movw	r24, r16
    130a:	0e 94 c4 00 	call	0x188	; 0x188 <_ZN13Character_LCD8SendCharEh>
    130e:	6f ef       	ldi	r22, 0xFF	; 255
    1310:	c8 01       	movw	r24, r16
    1312:	0e 94 c4 00 	call	0x188	; 0x188 <_ZN13Character_LCD8SendCharEh>
    1316:	41 e0       	ldi	r20, 0x01	; 1
    1318:	4d 0f       	add	r20, r29
    131a:	6f 2d       	mov	r22, r15
    131c:	c8 01       	movw	r24, r16
    131e:	0e 94 2a 04 	call	0x854	; 0x854 <_ZN13Character_LCD6GotoXYEhh>
    1322:	61 e0       	ldi	r22, 0x01	; 1
    1324:	c8 01       	movw	r24, r16
    1326:	0e 94 c4 00 	call	0x188	; 0x188 <_ZN13Character_LCD8SendCharEh>
    132a:	61 e0       	ldi	r22, 0x01	; 1
    132c:	c8 01       	movw	r24, r16
    132e:	0e 94 c4 00 	call	0x188	; 0x188 <_ZN13Character_LCD8SendCharEh>
    1332:	6f ef       	ldi	r22, 0xFF	; 255
    1334:	c8 01       	movw	r24, r16
    1336:	0e 94 c4 00 	call	0x188	; 0x188 <_ZN13Character_LCD8SendCharEh>
    133a:	df 91       	pop	r29
    133c:	cf 91       	pop	r28
    133e:	1f 91       	pop	r17
    1340:	0f 91       	pop	r16
    1342:	ff 90       	pop	r15
    1344:	08 95       	ret

00001346 <_ZN13Character_LCD11BigVariableEmhh>:
    1346:	4f 92       	push	r4
    1348:	5f 92       	push	r5
    134a:	6f 92       	push	r6
    134c:	7f 92       	push	r7
    134e:	bf 92       	push	r11
    1350:	cf 92       	push	r12
    1352:	df 92       	push	r13
    1354:	ef 92       	push	r14
    1356:	ff 92       	push	r15
    1358:	0f 93       	push	r16
    135a:	1f 93       	push	r17
    135c:	cf 93       	push	r28
    135e:	df 93       	push	r29
    1360:	cd b7       	in	r28, 0x3d	; 61
    1362:	de b7       	in	r29, 0x3e	; 62
    1364:	2f 97       	sbiw	r28, 0x0f	; 15
    1366:	0f b6       	in	r0, 0x3f	; 63
    1368:	f8 94       	cli
    136a:	de bf       	out	0x3e, r29	; 62
    136c:	0f be       	out	0x3f, r0	; 63
    136e:	cd bf       	out	0x3d, r28	; 61
    1370:	6c 01       	movw	r12, r24
    1372:	cb 01       	movw	r24, r22
    1374:	ba 01       	movw	r22, r20
    1376:	b2 2e       	mov	r11, r18
    1378:	10 e0       	ldi	r17, 0x00	; 0
    137a:	0f 2e       	mov	r0, r31
    137c:	fa e0       	ldi	r31, 0x0A	; 10
    137e:	4f 2e       	mov	r4, r31
    1380:	51 2c       	mov	r5, r1
    1382:	61 2c       	mov	r6, r1
    1384:	71 2c       	mov	r7, r1
    1386:	f0 2d       	mov	r31, r0
    1388:	ee 24       	eor	r14, r14
    138a:	e3 94       	inc	r14
    138c:	f1 2c       	mov	r15, r1
    138e:	ec 0e       	add	r14, r28
    1390:	fd 1e       	adc	r15, r29
    1392:	e1 0e       	add	r14, r17
    1394:	f1 1c       	adc	r15, r1
    1396:	a3 01       	movw	r20, r6
    1398:	92 01       	movw	r18, r4
    139a:	0e 94 50 0b 	call	0x16a0	; 0x16a0 <__udivmodsi4>
    139e:	f7 01       	movw	r30, r14
    13a0:	60 83       	st	Z, r22
    13a2:	62 2f       	mov	r22, r18
    13a4:	73 2f       	mov	r23, r19
    13a6:	84 2f       	mov	r24, r20
    13a8:	95 2f       	mov	r25, r21
    13aa:	1f 5f       	subi	r17, 0xFF	; 255
    13ac:	61 15       	cp	r22, r1
    13ae:	71 05       	cpc	r23, r1
    13b0:	81 05       	cpc	r24, r1
    13b2:	91 05       	cpc	r25, r1
    13b4:	49 f7       	brne	.-46     	; 0x1388 <_ZN13Character_LCD11BigVariableEmhh+0x42>
    13b6:	11 23       	and	r17, r17
    13b8:	89 f0       	breq	.+34     	; 0x13dc <_ZN13Character_LCD11BigVariableEmhh+0x96>
    13ba:	11 50       	subi	r17, 0x01	; 1
    13bc:	e1 e0       	ldi	r30, 0x01	; 1
    13be:	f0 e0       	ldi	r31, 0x00	; 0
    13c0:	ec 0f       	add	r30, r28
    13c2:	fd 1f       	adc	r31, r29
    13c4:	e1 0f       	add	r30, r17
    13c6:	f1 1d       	adc	r31, r1
    13c8:	20 2f       	mov	r18, r16
    13ca:	4b 2d       	mov	r20, r11
    13cc:	60 81       	ld	r22, Z
    13ce:	c6 01       	movw	r24, r12
    13d0:	0e 94 44 08 	call	0x1088	; 0x1088 <_ZN13Character_LCD9BigNumberEhhh>
    13d4:	f4 e0       	ldi	r31, 0x04	; 4
    13d6:	bf 0e       	add	r11, r31
    13d8:	11 11       	cpse	r17, r1
    13da:	ef cf       	rjmp	.-34     	; 0x13ba <_ZN13Character_LCD11BigVariableEmhh+0x74>
    13dc:	8f ec       	ldi	r24, 0xCF	; 207
    13de:	97 e0       	ldi	r25, 0x07	; 7
    13e0:	01 97       	sbiw	r24, 0x01	; 1
    13e2:	f1 f7       	brne	.-4      	; 0x13e0 <_ZN13Character_LCD11BigVariableEmhh+0x9a>
    13e4:	00 c0       	rjmp	.+0      	; 0x13e6 <_ZN13Character_LCD11BigVariableEmhh+0xa0>
    13e6:	00 00       	nop
    13e8:	2f 96       	adiw	r28, 0x0f	; 15
    13ea:	0f b6       	in	r0, 0x3f	; 63
    13ec:	f8 94       	cli
    13ee:	de bf       	out	0x3e, r29	; 62
    13f0:	0f be       	out	0x3f, r0	; 63
    13f2:	cd bf       	out	0x3d, r28	; 61
    13f4:	df 91       	pop	r29
    13f6:	cf 91       	pop	r28
    13f8:	1f 91       	pop	r17
    13fa:	0f 91       	pop	r16
    13fc:	ff 90       	pop	r15
    13fe:	ef 90       	pop	r14
    1400:	df 90       	pop	r13
    1402:	cf 90       	pop	r12
    1404:	bf 90       	pop	r11
    1406:	7f 90       	pop	r7
    1408:	6f 90       	pop	r6
    140a:	5f 90       	pop	r5
    140c:	4f 90       	pop	r4
    140e:	08 95       	ret

00001410 <_Z7Welcomev>:


Character_LCD LCD1;

void Welcome(void)
{
    1410:	ef 92       	push	r14
    1412:	0f 93       	push	r16
    1414:	cf 93       	push	r28
	#else
		//round up by default
		__ticks_dc = (uint32_t)(ceil(fabs(__tmp)));
	#endif

	__builtin_avr_delay_cycles(__ticks_dc);
    1416:	2f ef       	ldi	r18, 0xFF	; 255
    1418:	80 e7       	ldi	r24, 0x70	; 112
    141a:	92 e0       	ldi	r25, 0x02	; 2
    141c:	21 50       	subi	r18, 0x01	; 1
    141e:	80 40       	sbci	r24, 0x00	; 0
    1420:	90 40       	sbci	r25, 0x00	; 0
    1422:	e1 f7       	brne	.-8      	; 0x141c <_Z7Welcomev+0xc>
    1424:	00 c0       	rjmp	.+0      	; 0x1426 <_Z7Welcomev+0x16>
    1426:	00 00       	nop


	public:
	Character_LCD ();
	
	void SetRSPin(uint8_t ADD_PORT , uint8_t ADD_DDR , uint8_t Bit) { RS_PORT = ADD_PORT ; RS_DDR = ADD_DDR ; RS_Bit = Bit ; }
    1428:	ea e8       	ldi	r30, 0x8A	; 138
    142a:	f0 e0       	ldi	r31, 0x00	; 0
    142c:	9b e1       	ldi	r25, 0x1B	; 27
    142e:	90 83       	st	Z, r25
    1430:	8a e1       	ldi	r24, 0x1A	; 26
    1432:	81 83       	std	Z+1, r24	; 0x01
    1434:	12 82       	std	Z+2, r1	; 0x02
	void SetRWPin(uint8_t ADD_PORT , uint8_t ADD_DDR , uint8_t Bit) { RW_PORT = ADD_PORT ; RW_DDR = ADD_DDR ; RW_Bit = Bit ; }
    1436:	93 83       	std	Z+3, r25	; 0x03
    1438:	84 83       	std	Z+4, r24	; 0x04
    143a:	21 e0       	ldi	r18, 0x01	; 1
    143c:	25 83       	std	Z+5, r18	; 0x05
	void SetEPin(uint8_t ADD_PORT , uint8_t ADD_DDR , uint8_t Bit) { E_PORT = ADD_PORT ; E_DDR = ADD_DDR ; E_Bit = Bit ; }
    143e:	96 83       	std	Z+6, r25	; 0x06
    1440:	87 83       	std	Z+7, r24	; 0x07
    1442:	22 e0       	ldi	r18, 0x02	; 2
    1444:	20 87       	std	Z+8, r18	; 0x08
	void SetD4Pin(uint8_t ADD_PORT , uint8_t ADD_DDR , uint8_t Bit) { D4_PORT = ADD_PORT ; D4_DDR = ADD_DDR ; D4_Bit = Bit ; }
    1446:	91 87       	std	Z+9, r25	; 0x09
    1448:	82 87       	std	Z+10, r24	; 0x0a
    144a:	23 e0       	ldi	r18, 0x03	; 3
    144c:	23 87       	std	Z+11, r18	; 0x0b
	void SetD5Pin(uint8_t ADD_PORT , uint8_t ADD_DDR , uint8_t Bit) { D5_PORT = ADD_PORT ; D5_DDR = ADD_DDR ; D5_Bit = Bit ; }
    144e:	94 87       	std	Z+12, r25	; 0x0c
    1450:	85 87       	std	Z+13, r24	; 0x0d
    1452:	24 e0       	ldi	r18, 0x04	; 4
    1454:	26 87       	std	Z+14, r18	; 0x0e
	void SetD6Pin(uint8_t ADD_PORT , uint8_t ADD_DDR , uint8_t Bit) { D6_PORT = ADD_PORT ; D6_DDR = ADD_DDR ; D6_Bit = Bit ; }
    1456:	97 87       	std	Z+15, r25	; 0x0f
    1458:	80 8b       	std	Z+16, r24	; 0x10
    145a:	25 e0       	ldi	r18, 0x05	; 5
    145c:	21 8b       	std	Z+17, r18	; 0x11
	void SetD7Pin(uint8_t ADD_PORT , uint8_t ADD_DDR , uint8_t Bit) { D7_PORT = ADD_PORT ; D7_DDR = ADD_DDR ; D7_Bit = Bit ; }
    145e:	92 8b       	std	Z+18, r25	; 0x12
    1460:	83 8b       	std	Z+19, r24	; 0x13
    1462:	86 e0       	ldi	r24, 0x06	; 6
    1464:	84 8b       	std	Z+20, r24	; 0x14
	LCD1.SetD4Pin (ADD(PORTA),ADD(DDRA),3);
	LCD1.SetD5Pin (ADD(PORTA),ADD(DDRA),4);
	LCD1.SetD6Pin (ADD(PORTA),ADD(DDRA),5);
	LCD1.SetD7Pin (ADD(PORTA),ADD(DDRA),6);

	LCD1.Init(ProgressBar_Mode);
    1466:	61 e0       	ldi	r22, 0x01	; 1
    1468:	cf 01       	movw	r24, r30
    146a:	0e 94 83 05 	call	0xb06	; 0xb06 <_ZN13Character_LCD4InitE18Mode_Character_LCD>
	
	LCD1.Clr();
    146e:	8a e8       	ldi	r24, 0x8A	; 138
    1470:	90 e0       	ldi	r25, 0x00	; 0
    1472:	0e 94 20 04 	call	0x840	; 0x840 <_ZN13Character_LCD3ClrEv>
	
	LCD1.CopyString(LCDwelcomeln3, 0, 0);
    1476:	20 e0       	ldi	r18, 0x00	; 0
    1478:	40 e0       	ldi	r20, 0x00	; 0
    147a:	64 e5       	ldi	r22, 0x54	; 84
    147c:	70 e0       	ldi	r23, 0x00	; 0
    147e:	8a e8       	ldi	r24, 0x8A	; 138
    1480:	90 e0       	ldi	r25, 0x00	; 0
    1482:	0e 94 59 05 	call	0xab2	; 0xab2 <_ZN13Character_LCD10CopyStringEPKhhh>

	
	LCD1.GotoXY(12,1);LCD1.SendChar(6);
    1486:	41 e0       	ldi	r20, 0x01	; 1
    1488:	6c e0       	ldi	r22, 0x0C	; 12
    148a:	8a e8       	ldi	r24, 0x8A	; 138
    148c:	90 e0       	ldi	r25, 0x00	; 0
    148e:	0e 94 2a 04 	call	0x854	; 0x854 <_ZN13Character_LCD6GotoXYEhh>
    1492:	66 e0       	ldi	r22, 0x06	; 6
    1494:	8a e8       	ldi	r24, 0x8A	; 138
    1496:	90 e0       	ldi	r25, 0x00	; 0
    1498:	0e 94 c4 00 	call	0x188	; 0x188 <_ZN13Character_LCD8SendCharEh>
	LCD1.GotoXY(0,1);LCD1.SendChar(7);
    149c:	41 e0       	ldi	r20, 0x01	; 1
    149e:	60 e0       	ldi	r22, 0x00	; 0
    14a0:	8a e8       	ldi	r24, 0x8A	; 138
    14a2:	90 e0       	ldi	r25, 0x00	; 0
    14a4:	0e 94 2a 04 	call	0x854	; 0x854 <_ZN13Character_LCD6GotoXYEhh>
    14a8:	67 e0       	ldi	r22, 0x07	; 7
    14aa:	8a e8       	ldi	r24, 0x8A	; 138
    14ac:	90 e0       	ldi	r25, 0x00	; 0
    14ae:	0e 94 c4 00 	call	0x188	; 0x188 <_ZN13Character_LCD8SendCharEh>
	
	for (uint8_t i1 = 0 ; i1 < 31 ; i1 ++ )
    14b2:	c0 e0       	ldi	r28, 0x00	; 0
	{
		LCD1.ProgressBar(i1,30,11,1,1);
    14b4:	ee 24       	eor	r14, r14
    14b6:	e3 94       	inc	r14
    14b8:	01 e0       	ldi	r16, 0x01	; 1
    14ba:	2b e0       	ldi	r18, 0x0B	; 11
    14bc:	4e e1       	ldi	r20, 0x1E	; 30
    14be:	6c 2f       	mov	r22, r28
    14c0:	8a e8       	ldi	r24, 0x8A	; 138
    14c2:	90 e0       	ldi	r25, 0x00	; 0
    14c4:	0e 94 d8 07 	call	0xfb0	; 0xfb0 <_ZN13Character_LCD11ProgressBarEhhhhh>
    14c8:	2f ef       	ldi	r18, 0xFF	; 255
    14ca:	80 e7       	ldi	r24, 0x70	; 112
    14cc:	92 e0       	ldi	r25, 0x02	; 2
    14ce:	21 50       	subi	r18, 0x01	; 1
    14d0:	80 40       	sbci	r24, 0x00	; 0
    14d2:	90 40       	sbci	r25, 0x00	; 0
    14d4:	e1 f7       	brne	.-8      	; 0x14ce <_Z7Welcomev+0xbe>
    14d6:	00 c0       	rjmp	.+0      	; 0x14d8 <_Z7Welcomev+0xc8>
    14d8:	00 00       	nop

	
	LCD1.GotoXY(12,1);LCD1.SendChar(6);
	LCD1.GotoXY(0,1);LCD1.SendChar(7);
	
	for (uint8_t i1 = 0 ; i1 < 31 ; i1 ++ )
    14da:	cf 5f       	subi	r28, 0xFF	; 255
    14dc:	cf 31       	cpi	r28, 0x1F	; 31
    14de:	51 f7       	brne	.-44     	; 0x14b4 <_Z7Welcomev+0xa4>
	{
		LCD1.ProgressBar(i1,30,11,1,1);
		_delay_ms(100);
	}
	LCD1.Clr();
    14e0:	8a e8       	ldi	r24, 0x8A	; 138
    14e2:	90 e0       	ldi	r25, 0x00	; 0
    14e4:	0e 94 20 04 	call	0x840	; 0x840 <_ZN13Character_LCD3ClrEv>
	LCD1.Init(Big_Number_Mode);
    14e8:	62 e0       	ldi	r22, 0x02	; 2
    14ea:	8a e8       	ldi	r24, 0x8A	; 138
    14ec:	90 e0       	ldi	r25, 0x00	; 0
    14ee:	0e 94 83 05 	call	0xb06	; 0xb06 <_ZN13Character_LCD4InitE18Mode_Character_LCD>
	LCD1.BigVariable( 12 , 1, 1);
    14f2:	21 e0       	ldi	r18, 0x01	; 1
    14f4:	4c e0       	ldi	r20, 0x0C	; 12
    14f6:	50 e0       	ldi	r21, 0x00	; 0
    14f8:	60 e0       	ldi	r22, 0x00	; 0
    14fa:	70 e0       	ldi	r23, 0x00	; 0
    14fc:	8a e8       	ldi	r24, 0x8A	; 138
    14fe:	90 e0       	ldi	r25, 0x00	; 0
    1500:	0e 94 a3 09 	call	0x1346	; 0x1346 <_ZN13Character_LCD11BigVariableEmhh>
	LCD1.BigVariable( 30 , 10, 1);
    1504:	2a e0       	ldi	r18, 0x0A	; 10
    1506:	4e e1       	ldi	r20, 0x1E	; 30
    1508:	50 e0       	ldi	r21, 0x00	; 0
    150a:	60 e0       	ldi	r22, 0x00	; 0
    150c:	70 e0       	ldi	r23, 0x00	; 0
    150e:	8a e8       	ldi	r24, 0x8A	; 138
    1510:	90 e0       	ldi	r25, 0x00	; 0
    1512:	0e 94 a3 09 	call	0x1346	; 0x1346 <_ZN13Character_LCD11BigVariableEmhh>
	LCD1.GotoXY(8,1);
    1516:	41 e0       	ldi	r20, 0x01	; 1
    1518:	68 e0       	ldi	r22, 0x08	; 8
    151a:	8a e8       	ldi	r24, 0x8A	; 138
    151c:	90 e0       	ldi	r25, 0x00	; 0
    151e:	0e 94 2a 04 	call	0x854	; 0x854 <_ZN13Character_LCD6GotoXYEhh>
	LCD1.SendChar(3);
    1522:	63 e0       	ldi	r22, 0x03	; 3
    1524:	8a e8       	ldi	r24, 0x8A	; 138
    1526:	90 e0       	ldi	r25, 0x00	; 0
    1528:	0e 94 c4 00 	call	0x188	; 0x188 <_ZN13Character_LCD8SendCharEh>
	LCD1.SendChar(4);
    152c:	64 e0       	ldi	r22, 0x04	; 4
    152e:	8a e8       	ldi	r24, 0x8A	; 138
    1530:	90 e0       	ldi	r25, 0x00	; 0
    1532:	0e 94 c4 00 	call	0x188	; 0x188 <_ZN13Character_LCD8SendCharEh>
	LCD1.GotoXY(8,2);
    1536:	42 e0       	ldi	r20, 0x02	; 2
    1538:	68 e0       	ldi	r22, 0x08	; 8
    153a:	8a e8       	ldi	r24, 0x8A	; 138
    153c:	90 e0       	ldi	r25, 0x00	; 0
    153e:	0e 94 2a 04 	call	0x854	; 0x854 <_ZN13Character_LCD6GotoXYEhh>
	LCD1.SendChar(3);
    1542:	63 e0       	ldi	r22, 0x03	; 3
    1544:	8a e8       	ldi	r24, 0x8A	; 138
    1546:	90 e0       	ldi	r25, 0x00	; 0
    1548:	0e 94 c4 00 	call	0x188	; 0x188 <_ZN13Character_LCD8SendCharEh>
	LCD1.SendChar(4);
    154c:	64 e0       	ldi	r22, 0x04	; 4
    154e:	8a e8       	ldi	r24, 0x8A	; 138
    1550:	90 e0       	ldi	r25, 0x00	; 0
    1552:	0e 94 c4 00 	call	0x188	; 0x188 <_ZN13Character_LCD8SendCharEh>
    1556:	2f ef       	ldi	r18, 0xFF	; 255
    1558:	83 ed       	ldi	r24, 0xD3	; 211
    155a:	90 e3       	ldi	r25, 0x30	; 48
    155c:	21 50       	subi	r18, 0x01	; 1
    155e:	80 40       	sbci	r24, 0x00	; 0
    1560:	90 40       	sbci	r25, 0x00	; 0
    1562:	e1 f7       	brne	.-8      	; 0x155c <_Z7Welcomev+0x14c>
    1564:	00 c0       	rjmp	.+0      	; 0x1566 <_Z7Welcomev+0x156>
    1566:	00 00       	nop
	_delay_ms(2000);
}
    1568:	cf 91       	pop	r28
    156a:	0f 91       	pop	r16
    156c:	ef 90       	pop	r14
    156e:	08 95       	ret

00001570 <main>:


int main(void)
{
    1570:	cf 93       	push	r28
    1572:	df 93       	push	r29
    1574:	00 d0       	rcall	.+0      	; 0x1576 <main+0x6>
    1576:	1f 92       	push	r1
    1578:	cd b7       	in	r28, 0x3d	; 61
    157a:	de b7       	in	r29, 0x3e	; 62
	uint8_t Counter = 0 ;
	uint8_t a[3] = {90,51,80} ;
    157c:	8a e5       	ldi	r24, 0x5A	; 90
    157e:	89 83       	std	Y+1, r24	; 0x01
    1580:	83 e3       	ldi	r24, 0x33	; 51
    1582:	8a 83       	std	Y+2, r24	; 0x02
    1584:	80 e5       	ldi	r24, 0x50	; 80
    1586:	8b 83       	std	Y+3, r24	; 0x03
	Welcome();
    1588:	0e 94 08 0a 	call	0x1410	; 0x1410 <_Z7Welcomev>
	
	LCD1.Clr();
    158c:	8a e8       	ldi	r24, 0x8A	; 138
    158e:	90 e0       	ldi	r25, 0x00	; 0
    1590:	0e 94 20 04 	call	0x840	; 0x840 <_ZN13Character_LCD3ClrEv>
	
	LCD1.SendString("Hello Word !  ",0,0);
    1594:	20 e0       	ldi	r18, 0x00	; 0
    1596:	40 e0       	ldi	r20, 0x00	; 0
    1598:	60 e6       	ldi	r22, 0x60	; 96
    159a:	70 e0       	ldi	r23, 0x00	; 0
    159c:	8a e8       	ldi	r24, 0x8A	; 138
    159e:	90 e0       	ldi	r25, 0x00	; 0
    15a0:	0e 94 3f 04 	call	0x87e	; 0x87e <_ZN13Character_LCD10SendStringEPchh>
    15a4:	2f ef       	ldi	r18, 0xFF	; 255
    15a6:	89 e6       	ldi	r24, 0x69	; 105
    15a8:	98 e1       	ldi	r25, 0x18	; 24
    15aa:	21 50       	subi	r18, 0x01	; 1
    15ac:	80 40       	sbci	r24, 0x00	; 0
    15ae:	90 40       	sbci	r25, 0x00	; 0
    15b0:	e1 f7       	brne	.-8      	; 0x15aa <main+0x3a>
    15b2:	00 c0       	rjmp	.+0      	; 0x15b4 <main+0x44>
    15b4:	00 00       	nop
	
	_delay_ms(1000);
	
	LCD1.SendString_V(a,3);
    15b6:	43 e0       	ldi	r20, 0x03	; 3
    15b8:	be 01       	movw	r22, r28
    15ba:	6f 5f       	subi	r22, 0xFF	; 255
    15bc:	7f 4f       	sbci	r23, 0xFF	; 255
    15be:	8a e8       	ldi	r24, 0x8A	; 138
    15c0:	90 e0       	ldi	r25, 0x00	; 0
    15c2:	0e 94 7e 02 	call	0x4fc	; 0x4fc <_ZN13Character_LCD12SendString_VEPhh>
    15c6:	2f ef       	ldi	r18, 0xFF	; 255
    15c8:	89 e6       	ldi	r24, 0x69	; 105
    15ca:	98 e1       	ldi	r25, 0x18	; 24
    15cc:	21 50       	subi	r18, 0x01	; 1
    15ce:	80 40       	sbci	r24, 0x00	; 0
    15d0:	90 40       	sbci	r25, 0x00	; 0
    15d2:	e1 f7       	brne	.-8      	; 0x15cc <main+0x5c>
    15d4:	00 c0       	rjmp	.+0      	; 0x15d6 <main+0x66>
    15d6:	00 00       	nop
	
	_delay_ms(1000);
	
	LCD1.Clr();
    15d8:	8a e8       	ldi	r24, 0x8A	; 138
    15da:	90 e0       	ldi	r25, 0x00	; 0
    15dc:	0e 94 20 04 	call	0x840	; 0x840 <_ZN13Character_LCD3ClrEv>
	
	LCD1.SendString("Decimal = ",0,0); LCD1.VariableDec(11,14,0);
    15e0:	20 e0       	ldi	r18, 0x00	; 0
    15e2:	40 e0       	ldi	r20, 0x00	; 0
    15e4:	6f e6       	ldi	r22, 0x6F	; 111
    15e6:	70 e0       	ldi	r23, 0x00	; 0
    15e8:	8a e8       	ldi	r24, 0x8A	; 138
    15ea:	90 e0       	ldi	r25, 0x00	; 0
    15ec:	0e 94 3f 04 	call	0x87e	; 0x87e <_ZN13Character_LCD10SendStringEPchh>
    15f0:	00 e0       	ldi	r16, 0x00	; 0
    15f2:	2e e0       	ldi	r18, 0x0E	; 14
    15f4:	4b e0       	ldi	r20, 0x0B	; 11
    15f6:	50 e0       	ldi	r21, 0x00	; 0
    15f8:	60 e0       	ldi	r22, 0x00	; 0
    15fa:	70 e0       	ldi	r23, 0x00	; 0
    15fc:	8a e8       	ldi	r24, 0x8A	; 138
    15fe:	90 e0       	ldi	r25, 0x00	; 0
    1600:	0e 94 58 04 	call	0x8b0	; 0x8b0 <_ZN13Character_LCD11VariableDecEmhh>
	
	LCD1.SendString("Hexadecimal = ",0,1);LCD1.VariableHex(11,14,1);
    1604:	21 e0       	ldi	r18, 0x01	; 1
    1606:	40 e0       	ldi	r20, 0x00	; 0
    1608:	6a e7       	ldi	r22, 0x7A	; 122
    160a:	70 e0       	ldi	r23, 0x00	; 0
    160c:	8a e8       	ldi	r24, 0x8A	; 138
    160e:	90 e0       	ldi	r25, 0x00	; 0
    1610:	0e 94 3f 04 	call	0x87e	; 0x87e <_ZN13Character_LCD10SendStringEPchh>
    1614:	01 e0       	ldi	r16, 0x01	; 1
    1616:	2e e0       	ldi	r18, 0x0E	; 14
    1618:	4b e0       	ldi	r20, 0x0B	; 11
    161a:	50 e0       	ldi	r21, 0x00	; 0
    161c:	60 e0       	ldi	r22, 0x00	; 0
    161e:	70 e0       	ldi	r23, 0x00	; 0
    1620:	8a e8       	ldi	r24, 0x8A	; 138
    1622:	90 e0       	ldi	r25, 0x00	; 0
    1624:	0e 94 c5 04 	call	0x98a	; 0x98a <_ZN13Character_LCD11VariableHexEmhh>
    1628:	2f ef       	ldi	r18, 0xFF	; 255
    162a:	83 ed       	ldi	r24, 0xD3	; 211
    162c:	90 e3       	ldi	r25, 0x30	; 48
    162e:	21 50       	subi	r18, 0x01	; 1
    1630:	80 40       	sbci	r24, 0x00	; 0
    1632:	90 40       	sbci	r25, 0x00	; 0
    1634:	e1 f7       	brne	.-8      	; 0x162e <main+0xbe>
    1636:	00 c0       	rjmp	.+0      	; 0x1638 <main+0xc8>
    1638:	00 00       	nop
}


int main(void)
{
	uint8_t Counter = 0 ;
    163a:	10 e0       	ldi	r17, 0x00	; 0
	
	_delay_ms(2000);
	
	while (1)
	{
		LCD1.Clr();
    163c:	8a e8       	ldi	r24, 0x8A	; 138
    163e:	90 e0       	ldi	r25, 0x00	; 0
    1640:	0e 94 20 04 	call	0x840	; 0x840 <_ZN13Character_LCD3ClrEv>
		
		LCD1.BigVariable( Counter , 4, 0); _delay_ms(300);
    1644:	41 2f       	mov	r20, r17
    1646:	50 e0       	ldi	r21, 0x00	; 0
    1648:	60 e0       	ldi	r22, 0x00	; 0
    164a:	70 e0       	ldi	r23, 0x00	; 0
    164c:	00 e0       	ldi	r16, 0x00	; 0
    164e:	24 e0       	ldi	r18, 0x04	; 4
    1650:	8a e8       	ldi	r24, 0x8A	; 138
    1652:	90 e0       	ldi	r25, 0x00	; 0
    1654:	0e 94 a3 09 	call	0x1346	; 0x1346 <_ZN13Character_LCD11BigVariableEmhh>
    1658:	2f ef       	ldi	r18, 0xFF	; 255
    165a:	82 e5       	ldi	r24, 0x52	; 82
    165c:	97 e0       	ldi	r25, 0x07	; 7
    165e:	21 50       	subi	r18, 0x01	; 1
    1660:	80 40       	sbci	r24, 0x00	; 0
    1662:	90 40       	sbci	r25, 0x00	; 0
    1664:	e1 f7       	brne	.-8      	; 0x165e <main+0xee>
    1666:	00 c0       	rjmp	.+0      	; 0x1668 <main+0xf8>
    1668:	00 00       	nop
		
		Counter ++ ;
    166a:	1f 5f       	subi	r17, 0xFF	; 255
    166c:	e7 cf       	rjmp	.-50     	; 0x163c <main+0xcc>

0000166e <_GLOBAL__sub_I__ZN13Character_LCDC2Ev>:

const uint8_t LCDwelcomeln3[] PROGMEM=" Loading ... \0";



Character_LCD LCD1;
    166e:	8a e8       	ldi	r24, 0x8A	; 138
    1670:	90 e0       	ldi	r25, 0x00	; 0
    1672:	0e 94 a5 00 	call	0x14a	; 0x14a <_ZN13Character_LCDC1Ev>
    1676:	08 95       	ret

00001678 <__divmodhi4>:
    1678:	97 fb       	bst	r25, 7
    167a:	07 2e       	mov	r0, r23
    167c:	16 f4       	brtc	.+4      	; 0x1682 <__divmodhi4+0xa>
    167e:	00 94       	com	r0
    1680:	07 d0       	rcall	.+14     	; 0x1690 <__divmodhi4_neg1>
    1682:	77 fd       	sbrc	r23, 7
    1684:	09 d0       	rcall	.+18     	; 0x1698 <__divmodhi4_neg2>
    1686:	0e 94 87 0b 	call	0x170e	; 0x170e <__udivmodhi4>
    168a:	07 fc       	sbrc	r0, 7
    168c:	05 d0       	rcall	.+10     	; 0x1698 <__divmodhi4_neg2>
    168e:	3e f4       	brtc	.+14     	; 0x169e <__divmodhi4_exit>

00001690 <__divmodhi4_neg1>:
    1690:	90 95       	com	r25
    1692:	81 95       	neg	r24
    1694:	9f 4f       	sbci	r25, 0xFF	; 255
    1696:	08 95       	ret

00001698 <__divmodhi4_neg2>:
    1698:	70 95       	com	r23
    169a:	61 95       	neg	r22
    169c:	7f 4f       	sbci	r23, 0xFF	; 255

0000169e <__divmodhi4_exit>:
    169e:	08 95       	ret

000016a0 <__udivmodsi4>:
    16a0:	a1 e2       	ldi	r26, 0x21	; 33
    16a2:	1a 2e       	mov	r1, r26
    16a4:	aa 1b       	sub	r26, r26
    16a6:	bb 1b       	sub	r27, r27
    16a8:	fd 01       	movw	r30, r26
    16aa:	0d c0       	rjmp	.+26     	; 0x16c6 <__udivmodsi4_ep>

000016ac <__udivmodsi4_loop>:
    16ac:	aa 1f       	adc	r26, r26
    16ae:	bb 1f       	adc	r27, r27
    16b0:	ee 1f       	adc	r30, r30
    16b2:	ff 1f       	adc	r31, r31
    16b4:	a2 17       	cp	r26, r18
    16b6:	b3 07       	cpc	r27, r19
    16b8:	e4 07       	cpc	r30, r20
    16ba:	f5 07       	cpc	r31, r21
    16bc:	20 f0       	brcs	.+8      	; 0x16c6 <__udivmodsi4_ep>
    16be:	a2 1b       	sub	r26, r18
    16c0:	b3 0b       	sbc	r27, r19
    16c2:	e4 0b       	sbc	r30, r20
    16c4:	f5 0b       	sbc	r31, r21

000016c6 <__udivmodsi4_ep>:
    16c6:	66 1f       	adc	r22, r22
    16c8:	77 1f       	adc	r23, r23
    16ca:	88 1f       	adc	r24, r24
    16cc:	99 1f       	adc	r25, r25
    16ce:	1a 94       	dec	r1
    16d0:	69 f7       	brne	.-38     	; 0x16ac <__udivmodsi4_loop>
    16d2:	60 95       	com	r22
    16d4:	70 95       	com	r23
    16d6:	80 95       	com	r24
    16d8:	90 95       	com	r25
    16da:	9b 01       	movw	r18, r22
    16dc:	ac 01       	movw	r20, r24
    16de:	bd 01       	movw	r22, r26
    16e0:	cf 01       	movw	r24, r30
    16e2:	08 95       	ret

000016e4 <__tablejump2__>:
    16e4:	ee 0f       	add	r30, r30
    16e6:	ff 1f       	adc	r31, r31
    16e8:	05 90       	lpm	r0, Z+
    16ea:	f4 91       	lpm	r31, Z
    16ec:	e0 2d       	mov	r30, r0
    16ee:	09 94       	ijmp

000016f0 <__umulhisi3>:
    16f0:	a2 9f       	mul	r26, r18
    16f2:	b0 01       	movw	r22, r0
    16f4:	b3 9f       	mul	r27, r19
    16f6:	c0 01       	movw	r24, r0
    16f8:	a3 9f       	mul	r26, r19
    16fa:	70 0d       	add	r23, r0
    16fc:	81 1d       	adc	r24, r1
    16fe:	11 24       	eor	r1, r1
    1700:	91 1d       	adc	r25, r1
    1702:	b2 9f       	mul	r27, r18
    1704:	70 0d       	add	r23, r0
    1706:	81 1d       	adc	r24, r1
    1708:	11 24       	eor	r1, r1
    170a:	91 1d       	adc	r25, r1
    170c:	08 95       	ret

0000170e <__udivmodhi4>:
    170e:	aa 1b       	sub	r26, r26
    1710:	bb 1b       	sub	r27, r27
    1712:	51 e1       	ldi	r21, 0x11	; 17
    1714:	07 c0       	rjmp	.+14     	; 0x1724 <__udivmodhi4_ep>

00001716 <__udivmodhi4_loop>:
    1716:	aa 1f       	adc	r26, r26
    1718:	bb 1f       	adc	r27, r27
    171a:	a6 17       	cp	r26, r22
    171c:	b7 07       	cpc	r27, r23
    171e:	10 f0       	brcs	.+4      	; 0x1724 <__udivmodhi4_ep>
    1720:	a6 1b       	sub	r26, r22
    1722:	b7 0b       	sbc	r27, r23

00001724 <__udivmodhi4_ep>:
    1724:	88 1f       	adc	r24, r24
    1726:	99 1f       	adc	r25, r25
    1728:	5a 95       	dec	r21
    172a:	a9 f7       	brne	.-22     	; 0x1716 <__udivmodhi4_loop>
    172c:	80 95       	com	r24
    172e:	90 95       	com	r25
    1730:	bc 01       	movw	r22, r24
    1732:	cd 01       	movw	r24, r26
    1734:	08 95       	ret

00001736 <_exit>:
    1736:	f8 94       	cli

00001738 <__stop_program>:
    1738:	ff cf       	rjmp	.-2      	; 0x1738 <__stop_program>
